"File: dht11.c       Assembler  Version HGASM0202      Page 1


   1  0000              ; Generated by holtek-gcc v3.19, Thu Mar 25 17:35:56 2021
   2  0000              ; 
   3  0000              ; Configuration:
   4  0000              ;       with long instruction
   5  0000              ;       Multi-ROM, Multi-RAM
   6  0000              ;       bits_per_rom_unit:16
   7  0000              ;       with mp1
   8  0000              ;       with tbhp, address(0x9)
   9  0000              ;          Use tabrd-const
  10  0000              ;       
  11  0000              ; SFR address of long-instruction arch:
  12  0000              ;    mp0 = -1,1,0
  13  0000              ;    mp1 = 4,3,2
  14  0000              ;    mp2 = 14,13,12
  15  0000              ;    tbp = 9,7,8
  16  0000              ;    acc = 5
  17  0000              ;    pcl = 6
  18  0000              ;    status = 10
  19  0000              ;    bp = 11
  20  0000              ;    intc = 75
  21  0000              ;       
  22  0000              ;       
  23  0000              ; use 'tabrdc' instead of 'tabrd'
  24  0000              ;       
  25  0000              
  26  0000              #pragma translator "holtek-gcc 4.6.4" "3.19" "build 20130711"
  27  0000              ; Rebuild 718
  28  0000              
  29  0000              ir equ [2]
  30  0000              mp equ [3]
  31  0000              sbp equ [4]
  32  0000              acc equ [5]
  33  0000              bp equ [11]
  34  0000              tblp equ [7]
  35  0000              tbhp equ [9]
  36  0000              status equ [10]
  37  0000              c equ [10].0
  38  0000              ac equ [10].1
  39  0000              z equ [10].2
  40  0000              ov equ [10].3
  41  0000              cz equ [10].6
  42  0000              sc equ [10].7
  43  0000              intc equ [75]
  44  0000              
  45  0000              extern ra:byte
  46  0000              extern rb:byte
  47  0000              extern rc:byte
  48  0000              extern rd:byte
  49  0000              extern re:byte
  50  0000              extern rf:byte
  51  0000              extern rg:byte
  52  0000              extern rh:byte
  53  0000              extern _Crom2Prom:near
  54  0000              extern _Crom2PromNext:near
  55  0000              
  56  0000              RAMBANK 0 @BITDATASEC, @BITDATASEC1
  57  0000              @HCCINIT	.section 'data'
  58  0000              @HCCINIT0	.section 'data'
  59  0000              @BITDATASEC	 .section 'data'
"File: dht11.ASM     Assembler  Version HGASM0202      Page 2

  60  0000              @BITDATASEC1	 .section 'data'
  61  0000              
  62  0000              #pragma debug scope 1 1
  63  0000              	extern __DELAY3:near
  64  0000              	extern __DELAYX3:near
  65  0000              	extern __DELAYX6:near
  66  0000              	extern __DELAYY5:near
  67  0000              	extern __DELAYY3:near
  68  0000              	extern _builtin_holtek_delay_2:byte
  69  0000              public _delay_ms
  70  0000              #pragma debug scope 2 1

  22  0000              #line 22 "E:\Project\17.HT66F4560_EVM_V1.0\CODE\HT66F4560_TuYa_FishTank_V1.0\souce\dht11.c"
  22  0000              _delay_ms .section 'code'
  22  0000              _delay_ms proc
  22  0000  00              local _delay_ms_2 db 1 dup(?)	; 0,1
  22  0000  0080     R  	mov _delay_ms_2[0],a
  22  0001              #pragma debug variable 8 2 _delay_ms_2+0 "time"
  24  0001              #line 24 "E:\Project\17.HT66F4560_EVM_V1.0\CODE\HT66F4560_TuYa_FishTank_V1.0\souce\dht11.c"
  24  0001  2800     R  	jmp _L2
  24  0002              _L3:
  26  0002              #line 26 "E:\Project\17.HT66F4560_EVM_V1.0\CODE\HT66F4560_TuYa_FishTank_V1.0\souce\dht11.c"
  26  0002              ;# 26 "E:\Project\17.HT66F4560_EVM_V1.0\CODE\HT66F4560_TuYa_FishTank_V1.0\souce\dht11.c" 1
  26  0002              	IF 2000>263690
  26  0002              ;# 26 "E:\Project\17.HT66F4560_EVM_V1.0\CODE\HT66F4560_TuYa_FishTank_V1.0\souce\dht11.c" 1
  26  0002              	ERRMESSAGE 'the value 2000of the argument exceeds the maxinum 263690'
  26  0002              	ENDIF
  26  0002              ;# 26 "E:\Project\17.HT66F4560_EVM_V1.0\CODE\HT66F4560_TuYa_FishTank_V1.0\souce\dht11.c" 1
  26  0002              	IF 2000<0
  26  0002              ;# 26 "E:\Project\17.HT66F4560_EVM_V1.0\CODE\HT66F4560_TuYa_FishTank_V1.0\souce\dht11.c" 1
  26  0002              	ERRMESSAGE 'the value 2000 of the argument exceeds the mininum 0'
  26  0002              	ENDIF
  26  0002              ;# 26 "E:\Project\17.HT66F4560_EVM_V1.0\CODE\HT66F4560_TuYa_FishTank_V1.0\souce\dht11.c" 1
  26  0002              	IF 2000==0
  26  0002              ;# 26 "E:\Project\17.HT66F4560_EVM_V1.0\CODE\HT66F4560_TuYa_FishTank_V1.0\souce\dht11.c" 1
  26  0002              	JMP $
  26  0002              	ENDIF
  26  0002              ;# 26 "E:\Project\17.HT66F4560_EVM_V1.0\CODE\HT66F4560_TuYa_FishTank_V1.0\souce\dht11.c" 1
  26  0002              	IF (2000>=1) AND (2000<( 4 + __PBP__ * 2))
  26  0002              ;# 26 "E:\Project\17.HT66F4560_EVM_V1.0\CODE\HT66F4560_TuYa_FishTank_V1.0\souce\dht11.c" 1
  26  0002              	NOP
  26  0002              	ENDIF
  26  0002              ;# 26 "E:\Project\17.HT66F4560_EVM_V1.0\CODE\HT66F4560_TuYa_FishTank_V1.0\souce\dht11.c" 1
  26  0002              	IF (2000>=2) AND (2000<( 4 + __PBP__ * 2))
  26  0002              ;# 26 "E:\Project\17.HT66F4560_EVM_V1.0\CODE\HT66F4560_TuYa_FishTank_V1.0\souce\dht11.c" 1
  26  0002              	NOP
  26  0002              	ENDIF
  26  0002              ;# 26 "E:\Project\17.HT66F4560_EVM_V1.0\CODE\HT66F4560_TuYa_FishTank_V1.0\souce\dht11.c" 1
  26  0002              	IF (2000>=3) AND (2000<( 4 + __PBP__ * 2))
  26  0002              ;# 26 "E:\Project\17.HT66F4560_EVM_V1.0\CODE\HT66F4560_TuYa_FishTank_V1.0\souce\dht11.c" 1
  26  0002              	NOP
  26  0002              	ENDIF
  26  0002              ;# 26 "E:\Project\17.HT66F4560_EVM_V1.0\CODE\HT66F4560_TuYa_FishTank_V1.0\souce\dht11.c" 1
  26  0002              	IF (2000>=4) AND (2000<( 4 + __PBP__ * 2)) AND ( __PBP__ > 0 )
  26  0002              ;# 26 "E:\Project\17.HT66F4560_EVM_V1.0\CODE\HT66F4560_TuYa_FishTank_V1.0\souce\dht11.c" 1
  26  0002              	NOP
  26  0002              	ENDIF
  26  0002              ;# 26 "E:\Project\17.HT66F4560_EVM_V1.0\CODE\HT66F4560_TuYa_FishTank_V1.0\souce\dht11.c" 1
  26  0002              	IF (2000>=5) AND (2000<( 4 + __PBP__ * 2)) AND ( __PBP__ > 0 )
  26  0002              ;# 26 "E:\Project\17.HT66F4560_EVM_V1.0\CODE\HT66F4560_TuYa_FishTank_V1.0\souce\dht11.c" 1
"File: dht11.c       Assembler  Version HGASM0202      Page 3

  26  0002              	NOP
  26  0002              	ENDIF
  26  0002              ;# 26 "E:\Project\17.HT66F4560_EVM_V1.0\CODE\HT66F4560_TuYa_FishTank_V1.0\souce\dht11.c" 1
  26  0002              	IF (2000>=6) AND (2000<( 4 + __PBP__ * 2))  AND ( __PBP__ > 1 )
  26  0002              ;# 26 "E:\Project\17.HT66F4560_EVM_V1.0\CODE\HT66F4560_TuYa_FishTank_V1.0\souce\dht11.c" 1
  26  0002              	NOP
  26  0002              	ENDIF
  26  0002              ;# 26 "E:\Project\17.HT66F4560_EVM_V1.0\CODE\HT66F4560_TuYa_FishTank_V1.0\souce\dht11.c" 1
  26  0002              	IF (2000>=7) AND (2000<( 4 + __PBP__ * 2))  AND ( __PBP__ > 1 )
  26  0002              ;# 26 "E:\Project\17.HT66F4560_EVM_V1.0\CODE\HT66F4560_TuYa_FishTank_V1.0\souce\dht11.c" 1
  26  0002              	NOP
  26  0002              	ENDIF
  26  0002              ;# 26 "E:\Project\17.HT66F4560_EVM_V1.0\CODE\HT66F4560_TuYa_FishTank_V1.0\souce\dht11.c" 1
  26  0002              	IF (2000>=8) AND (2000<( 4 + __PBP__ * 2))  AND ( __PBP__ > 2 )
  26  0002              ;# 26 "E:\Project\17.HT66F4560_EVM_V1.0\CODE\HT66F4560_TuYa_FishTank_V1.0\souce\dht11.c" 1
  26  0002              	NOP
  26  0002              	ENDIF
  26  0002              ;# 26 "E:\Project\17.HT66F4560_EVM_V1.0\CODE\HT66F4560_TuYa_FishTank_V1.0\souce\dht11.c" 1
  26  0002              	IF (2000==9)  AND ( __PBP__ > 2 )
  26  0002              ;# 26 "E:\Project\17.HT66F4560_EVM_V1.0\CODE\HT66F4560_TuYa_FishTank_V1.0\souce\dht11.c" 1
  26  0002              	NOP
  26  0002              	ENDIF
  26  0002              ;# 26 "E:\Project\17.HT66F4560_EVM_V1.0\CODE\HT66F4560_TuYa_FishTank_V1.0\souce\dht11.c" 1
  26  0002              	IF (2000< ( 8 + __PBP__ * 2)) AND (2000>( 3 + __PBP__ * 2))
  26  0002              ;# 26 "E:\Project\17.HT66F4560_EVM_V1.0\CODE\HT66F4560_TuYa_FishTank_V1.0\souce\dht11.c" 1
  26  0002              	fcall __DELAY3 + ( 7 + __PBP__ * 2) -2000
  26  0002              	ENDIF
  26  0002              ;# 26 "E:\Project\17.HT66F4560_EVM_V1.0\CODE\HT66F4560_TuYa_FishTank_V1.0\souce\dht11.c" 1
  26  0002              	IF (2000< ( 0404h + __PBP__ * 2)) AND (2000>( 7 + __PBP__ * 2))
  26  0002              ;# 26 "E:\Project\17.HT66F4560_EVM_V1.0\CODE\HT66F4560_TuYa_FishTank_V1.0\souce\dht11.c" 1
  26  0002              	MOV A,(2000-( 4 + __PBP__ * 2))/4
  26  0002              ;# 26 "E:\Project\17.HT66F4560_EVM_V1.0\CODE\HT66F4560_TuYa_FishTank_V1.0\souce\dht11.c" 1
  26  0002              	fcall __DELAYX3 + 3 -((2000-( 4 + __PBP__ * 2)) MOD 4) 
  26  0002              	ENDIF
  26  0002              ;# 26 "E:\Project\17.HT66F4560_EVM_V1.0\CODE\HT66F4560_TuYa_FishTank_V1.0\souce\dht11.c" 1
  26  0002              	IF (2000< ( 040bh + __PBP__ * 2)) AND (2000> ( 0403h + __PBP__ * 2))
  26  0002              ;# 26 "E:\Project\17.HT66F4560_EVM_V1.0\CODE\HT66F4560_TuYa_FishTank_V1.0\souce\dht11.c" 1
  26  0002              	MOV A,0 
  26  0002              ;# 26 "E:\Project\17.HT66F4560_EVM_V1.0\CODE\HT66F4560_TuYa_FishTank_V1.0\souce\dht11.c" 1
  26  0002              	fcall __DELAYX6 + ( 040ah + __PBP__ * 2) -2000
  26  0002              	ENDIF
  26  0002              ;# 26 "E:\Project\17.HT66F4560_EVM_V1.0\CODE\HT66F4560_TuYa_FishTank_V1.0\souce\dht11.c" 1
  26  0002              	IF (2000 >= ( 040bh + __PBP__ * 2)) AND ((((2000-( 9 + __PBP__ * 2))%0402h)/4+1)>256)
  26  0002              ;# 26 "E:\Project\17.HT66F4560_EVM_V1.0\CODE\HT66F4560_TuYa_FishTank_V1.0\souce\dht11.c" 1
  26  0002              	MOV A,(2000-( 9 + __PBP__ * 2))/0402h
  26  0002              ;# 26 "E:\Project\17.HT66F4560_EVM_V1.0\CODE\HT66F4560_TuYa_FishTank_V1.0\souce\dht11.c" 1
  26  0002              	MOV _builtin_holtek_delay_2,A
  26  0002              ;# 26 "E:\Project\17.HT66F4560_EVM_V1.0\CODE\HT66F4560_TuYa_FishTank_V1.0\souce\dht11.c" 1
  26  0002              	MOV A,0
  26  0002              ;# 26 "E:\Project\17.HT66F4560_EVM_V1.0\CODE\HT66F4560_TuYa_FishTank_V1.0\souce\dht11.c" 1
  26  0002              	fcall __DELAYY5 +5- (((2000-( 9 + __PBP__ * 2))%0402h)%6) 
  26  0002              	ENDIF
  26  0002              ;# 26 "E:\Project\17.HT66F4560_EVM_V1.0\CODE\HT66F4560_TuYa_FishTank_V1.0\souce\dht11.c" 1
  26  0002              	IF (2000 >= ( 040bh + __PBP__ * 2)) AND ((((2000-( 9 + __PBP__ * 2))%0402h)/4+1)<=256)
  26  0002              ;# 26 "E:\Project\17.HT66F4560_EVM_V1.0\CODE\HT66F4560_TuYa_FishTank_V1.0\souce\dht11.c" 1
  26  0002  0F01        	MOV A,(2000-( 9 + __PBP__ * 2))/0402h
  26  0003              ;# 26 "E:\Project\17.HT66F4560_EVM_V1.0\CODE\HT66F4560_TuYa_FishTank_V1.0\souce\dht11.c" 1
  26  0003  0080     E  	MOV _builtin_holtek_delay_2,A
  26  0004              ;# 26 "E:\Project\17.HT66F4560_EVM_V1.0\CODE\HT66F4560_TuYa_FishTank_V1.0\souce\dht11.c" 1
  26  0004  0FF1        	MOV A,((2000-( 9 + __PBP__ * 2))%0402h)/4+1
"File: dht11.c       Assembler  Version HGASM0202      Page 4

  26  0005              ;# 26 "E:\Project\17.HT66F4560_EVM_V1.0\CODE\HT66F4560_TuYa_FishTank_V1.0\souce\dht11.c" 1
  26  0005              	fcall __DELAYY3 +3-(((2000-( 9 + __PBP__ * 2))%0402h)%4) 
  26  000C              	ENDIF
  24  000C              #line 24 "E:\Project\17.HT66F4560_EVM_V1.0\CODE\HT66F4560_TuYa_FishTank_V1.0\souce\dht11.c"
  24  000C  1580     R  	dec _delay_ms_2[0]
  24  000D              _L2:
  24  000D  1080     R  	sz _delay_ms_2[0]
  24  000E  2800     R  	jmp _L3
  24  000F  0003        	ret
  24  0010              _delay_ms endp
  24  0010              #line 24 "E:\Project\17.HT66F4560_EVM_V1.0\CODE\HT66F4560_TuYa_FishTank_V1.0\souce\dht11.c"
  24  0010              #pragma debug scope 1 1
  24  0010              public _delay_us
  24  0010              #pragma debug scope 3 1
  30  0010              #line 30 "E:\Project\17.HT66F4560_EVM_V1.0\CODE\HT66F4560_TuYa_FishTank_V1.0\souce\dht11.c"
  30  0000              _delay_us .section 'code'
  30  0000              _delay_us proc
  30  0000              public _delay_us_2
  30  0000  0002[           local _delay_us_2 db 2 dup(?)	; 2,0
            00
            ]
  30  0002              #pragma debug variable 12 3 _delay_us_2+0 "time"
  30  0000  0003        	ret
  30  0001              _delay_us endp
  30  0001              #line 30 "E:\Project\17.HT66F4560_EVM_V1.0\CODE\HT66F4560_TuYa_FishTank_V1.0\souce\dht11.c"
  30  0001              #pragma debug scope 1 1
  30  0001              ___pac equ [21]
  30  0001              ___pa equ [20]
  30  0001              public _DHT11_Rst
  30  0001              #pragma debug scope 4 1
  38  0001              #line 38 "E:\Project\17.HT66F4560_EVM_V1.0\CODE\HT66F4560_TuYa_FishTank_V1.0\souce\dht11.c"
  38  0000              _DHT11_Rst .section 'code'
  38  0000              _DHT11_Rst proc
  38  0000  00              local _DHT11_Rst_2 db 1 dup(?)	; 0,1
  40  0001              #line 40 "E:\Project\17.HT66F4560_EVM_V1.0\CODE\HT66F4560_TuYa_FishTank_V1.0\souce\dht11.c"
  40  0000  3715        	clr [21].6
  41  0001              #line 41 "E:\Project\17.HT66F4560_EVM_V1.0\CODE\HT66F4560_TuYa_FishTank_V1.0\souce\dht11.c"
  41  0001  3714        	clr [20].6
  41  0002  0F05        	mov a,5
  41  0003  0080     R  	mov _DHT11_Rst_2[0],a
  41  0004              _L8:
  44  0004              #line 44 "E:\Project\17.HT66F4560_EVM_V1.0\CODE\HT66F4560_TuYa_FishTank_V1.0\souce\dht11.c"
  44  0004  0F05        	mov a,5
  44  0005              	fcall _delay_ms
  44  000C  1780     R  	sdz _DHT11_Rst_2[0]
  44  000D  2800     R  	jmp _L8
  48  000E              #line 48 "E:\Project\17.HT66F4560_EVM_V1.0\CODE\HT66F4560_TuYa_FishTank_V1.0\souce\dht11.c"
  48  000E  3314        	set [20].6
  49  000F              #line 49 "E:\Project\17.HT66F4560_EVM_V1.0\CODE\HT66F4560_TuYa_FishTank_V1.0\souce\dht11.c"
  49  000F              ;# 49 "E:\Project\17.HT66F4560_EVM_V1.0\CODE\HT66F4560_TuYa_FishTank_V1.0\souce\dht11.c" 1
  49  000F              	IF 90>263690
  49  000F              ;# 49 "E:\Project\17.HT66F4560_EVM_V1.0\CODE\HT66F4560_TuYa_FishTank_V1.0\souce\dht11.c" 1
  49  000F              	ERRMESSAGE 'the value 90of the argument exceeds the maxinum 263690'
  49  000F              	ENDIF
  49  000F              ;# 49 "E:\Project\17.HT66F4560_EVM_V1.0\CODE\HT66F4560_TuYa_FishTank_V1.0\souce\dht11.c" 1
  49  000F              	IF 90<0
  49  000F              ;# 49 "E:\Project\17.HT66F4560_EVM_V1.0\CODE\HT66F4560_TuYa_FishTank_V1.0\souce\dht11.c" 1
  49  000F              	ERRMESSAGE 'the value 90 of the argument exceeds the mininum 0'
  49  000F              	ENDIF
  49  000F              ;# 49 "E:\Project\17.HT66F4560_EVM_V1.0\CODE\HT66F4560_TuYa_FishTank_V1.0\souce\dht11.c" 1
"File: dht11.c       Assembler  Version HGASM0202      Page 5

  49  000F              	IF 90==0
  49  000F              ;# 49 "E:\Project\17.HT66F4560_EVM_V1.0\CODE\HT66F4560_TuYa_FishTank_V1.0\souce\dht11.c" 1
  49  000F              	JMP $
  49  000F              	ENDIF
  49  000F              ;# 49 "E:\Project\17.HT66F4560_EVM_V1.0\CODE\HT66F4560_TuYa_FishTank_V1.0\souce\dht11.c" 1
  49  000F              	IF (90>=1) AND (90<( 4 + __PBP__ * 2))
  49  000F              ;# 49 "E:\Project\17.HT66F4560_EVM_V1.0\CODE\HT66F4560_TuYa_FishTank_V1.0\souce\dht11.c" 1
  49  000F              	NOP
  49  000F              	ENDIF
  49  000F              ;# 49 "E:\Project\17.HT66F4560_EVM_V1.0\CODE\HT66F4560_TuYa_FishTank_V1.0\souce\dht11.c" 1
  49  000F              	IF (90>=2) AND (90<( 4 + __PBP__ * 2))
  49  000F              ;# 49 "E:\Project\17.HT66F4560_EVM_V1.0\CODE\HT66F4560_TuYa_FishTank_V1.0\souce\dht11.c" 1
  49  000F              	NOP
  49  000F              	ENDIF
  49  000F              ;# 49 "E:\Project\17.HT66F4560_EVM_V1.0\CODE\HT66F4560_TuYa_FishTank_V1.0\souce\dht11.c" 1
  49  000F              	IF (90>=3) AND (90<( 4 + __PBP__ * 2))
  49  000F              ;# 49 "E:\Project\17.HT66F4560_EVM_V1.0\CODE\HT66F4560_TuYa_FishTank_V1.0\souce\dht11.c" 1
  49  000F              	NOP
  49  000F              	ENDIF
  49  000F              ;# 49 "E:\Project\17.HT66F4560_EVM_V1.0\CODE\HT66F4560_TuYa_FishTank_V1.0\souce\dht11.c" 1
  49  000F              	IF (90>=4) AND (90<( 4 + __PBP__ * 2)) AND ( __PBP__ > 0 )
  49  000F              ;# 49 "E:\Project\17.HT66F4560_EVM_V1.0\CODE\HT66F4560_TuYa_FishTank_V1.0\souce\dht11.c" 1
  49  000F              	NOP
  49  000F              	ENDIF
  49  000F              ;# 49 "E:\Project\17.HT66F4560_EVM_V1.0\CODE\HT66F4560_TuYa_FishTank_V1.0\souce\dht11.c" 1
  49  000F              	IF (90>=5) AND (90<( 4 + __PBP__ * 2)) AND ( __PBP__ > 0 )
  49  000F              ;# 49 "E:\Project\17.HT66F4560_EVM_V1.0\CODE\HT66F4560_TuYa_FishTank_V1.0\souce\dht11.c" 1
  49  000F              	NOP
  49  000F              	ENDIF
  49  000F              ;# 49 "E:\Project\17.HT66F4560_EVM_V1.0\CODE\HT66F4560_TuYa_FishTank_V1.0\souce\dht11.c" 1
  49  000F              	IF (90>=6) AND (90<( 4 + __PBP__ * 2))  AND ( __PBP__ > 1 )
  49  000F              ;# 49 "E:\Project\17.HT66F4560_EVM_V1.0\CODE\HT66F4560_TuYa_FishTank_V1.0\souce\dht11.c" 1
  49  000F              	NOP
  49  000F              	ENDIF
  49  000F              ;# 49 "E:\Project\17.HT66F4560_EVM_V1.0\CODE\HT66F4560_TuYa_FishTank_V1.0\souce\dht11.c" 1
  49  000F              	IF (90>=7) AND (90<( 4 + __PBP__ * 2))  AND ( __PBP__ > 1 )
  49  000F              ;# 49 "E:\Project\17.HT66F4560_EVM_V1.0\CODE\HT66F4560_TuYa_FishTank_V1.0\souce\dht11.c" 1
  49  000F              	NOP
  49  000F              	ENDIF
  49  000F              ;# 49 "E:\Project\17.HT66F4560_EVM_V1.0\CODE\HT66F4560_TuYa_FishTank_V1.0\souce\dht11.c" 1
  49  000F              	IF (90>=8) AND (90<( 4 + __PBP__ * 2))  AND ( __PBP__ > 2 )
  49  000F              ;# 49 "E:\Project\17.HT66F4560_EVM_V1.0\CODE\HT66F4560_TuYa_FishTank_V1.0\souce\dht11.c" 1
  49  000F              	NOP
  49  000F              	ENDIF
  49  000F              ;# 49 "E:\Project\17.HT66F4560_EVM_V1.0\CODE\HT66F4560_TuYa_FishTank_V1.0\souce\dht11.c" 1
  49  000F              	IF (90==9)  AND ( __PBP__ > 2 )
  49  000F              ;# 49 "E:\Project\17.HT66F4560_EVM_V1.0\CODE\HT66F4560_TuYa_FishTank_V1.0\souce\dht11.c" 1
  49  000F              	NOP
  49  000F              	ENDIF
  49  000F              ;# 49 "E:\Project\17.HT66F4560_EVM_V1.0\CODE\HT66F4560_TuYa_FishTank_V1.0\souce\dht11.c" 1
  49  000F              	IF (90< ( 8 + __PBP__ * 2)) AND (90>( 3 + __PBP__ * 2))
  49  000F              ;# 49 "E:\Project\17.HT66F4560_EVM_V1.0\CODE\HT66F4560_TuYa_FishTank_V1.0\souce\dht11.c" 1
  49  000F              	fcall __DELAY3 + ( 7 + __PBP__ * 2) -90
  49  000F              	ENDIF
  49  000F              ;# 49 "E:\Project\17.HT66F4560_EVM_V1.0\CODE\HT66F4560_TuYa_FishTank_V1.0\souce\dht11.c" 1
  49  000F              	IF (90< ( 0404h + __PBP__ * 2)) AND (90>( 7 + __PBP__ * 2))
  49  000F              ;# 49 "E:\Project\17.HT66F4560_EVM_V1.0\CODE\HT66F4560_TuYa_FishTank_V1.0\souce\dht11.c" 1
  49  000F  0F15        	MOV A,(90-( 4 + __PBP__ * 2))/4
  49  0010              ;# 49 "E:\Project\17.HT66F4560_EVM_V1.0\CODE\HT66F4560_TuYa_FishTank_V1.0\souce\dht11.c" 1
  49  0010              	fcall __DELAYX3 + 3 -((90-( 4 + __PBP__ * 2)) MOD 4) 
"File: dht11.c       Assembler  Version HGASM0202      Page 6

  49  0017              	ENDIF
  49  0017              ;# 49 "E:\Project\17.HT66F4560_EVM_V1.0\CODE\HT66F4560_TuYa_FishTank_V1.0\souce\dht11.c" 1
  49  0017              	IF (90< ( 040bh + __PBP__ * 2)) AND (90> ( 0403h + __PBP__ * 2))
  49  0017              ;# 49 "E:\Project\17.HT66F4560_EVM_V1.0\CODE\HT66F4560_TuYa_FishTank_V1.0\souce\dht11.c" 1
  49  0017              	MOV A,0 
  49  0017              ;# 49 "E:\Project\17.HT66F4560_EVM_V1.0\CODE\HT66F4560_TuYa_FishTank_V1.0\souce\dht11.c" 1
  49  0017              	fcall __DELAYX6 + ( 040ah + __PBP__ * 2) -90
  49  0017              	ENDIF
  49  0017              ;# 49 "E:\Project\17.HT66F4560_EVM_V1.0\CODE\HT66F4560_TuYa_FishTank_V1.0\souce\dht11.c" 1
  49  0017              	IF (90 >= ( 040bh + __PBP__ * 2)) AND ((((90-( 9 + __PBP__ * 2))%0402h)/4+1)>256)
  49  0017              ;# 49 "E:\Project\17.HT66F4560_EVM_V1.0\CODE\HT66F4560_TuYa_FishTank_V1.0\souce\dht11.c" 1
  49  0017              	MOV A,(90-( 9 + __PBP__ * 2))/0402h
  49  0017              ;# 49 "E:\Project\17.HT66F4560_EVM_V1.0\CODE\HT66F4560_TuYa_FishTank_V1.0\souce\dht11.c" 1
  49  0017              	MOV _builtin_holtek_delay_2,A
  49  0017              ;# 49 "E:\Project\17.HT66F4560_EVM_V1.0\CODE\HT66F4560_TuYa_FishTank_V1.0\souce\dht11.c" 1
  49  0017              	MOV A,0
  49  0017              ;# 49 "E:\Project\17.HT66F4560_EVM_V1.0\CODE\HT66F4560_TuYa_FishTank_V1.0\souce\dht11.c" 1
  49  0017              	fcall __DELAYY5 +5- (((90-( 9 + __PBP__ * 2))%0402h)%6) 
  49  0017              	ENDIF
  49  0017              ;# 49 "E:\Project\17.HT66F4560_EVM_V1.0\CODE\HT66F4560_TuYa_FishTank_V1.0\souce\dht11.c" 1
  49  0017              	IF (90 >= ( 040bh + __PBP__ * 2)) AND ((((90-( 9 + __PBP__ * 2))%0402h)/4+1)<=256)
  49  0017              ;# 49 "E:\Project\17.HT66F4560_EVM_V1.0\CODE\HT66F4560_TuYa_FishTank_V1.0\souce\dht11.c" 1
  49  0017              	MOV A,(90-( 9 + __PBP__ * 2))/0402h
  49  0017              ;# 49 "E:\Project\17.HT66F4560_EVM_V1.0\CODE\HT66F4560_TuYa_FishTank_V1.0\souce\dht11.c" 1
  49  0017              	MOV _builtin_holtek_delay_2,A
  49  0017              ;# 49 "E:\Project\17.HT66F4560_EVM_V1.0\CODE\HT66F4560_TuYa_FishTank_V1.0\souce\dht11.c" 1
  49  0017              	MOV A,((90-( 9 + __PBP__ * 2))%0402h)/4+1
  49  0017              ;# 49 "E:\Project\17.HT66F4560_EVM_V1.0\CODE\HT66F4560_TuYa_FishTank_V1.0\souce\dht11.c" 1
  49  0017              	fcall __DELAYY3 +3-(((90-( 9 + __PBP__ * 2))%0402h)%4) 
  49  0017              	ENDIF
  50  0017              #line 50 "E:\Project\17.HT66F4560_EVM_V1.0\CODE\HT66F4560_TuYa_FishTank_V1.0\souce\dht11.c"
  50  0017  3315        	set [21].6
  50  0018  0003        	ret
  50  0019              _DHT11_Rst endp
  50  0019              #line 50 "E:\Project\17.HT66F4560_EVM_V1.0\CODE\HT66F4560_TuYa_FishTank_V1.0\souce\dht11.c"
  50  0019              #pragma debug scope 1 1
  50  0019              public _DHT11_Check
  50  0019              #pragma debug scope 5 1
  56  0019              #line 56 "E:\Project\17.HT66F4560_EVM_V1.0\CODE\HT66F4560_TuYa_FishTank_V1.0\souce\dht11.c"
  56  0000              _DHT11_Check .section 'code'
  56  0000              _DHT11_Check proc
  58  0000              #line 58 "E:\Project\17.HT66F4560_EVM_V1.0\CODE\HT66F4560_TuYa_FishTank_V1.0\souce\dht11.c"
  58  0000  3315        	set [21].6
  57  0001              #line 57 "E:\Project\17.HT66F4560_EVM_V1.0\CODE\HT66F4560_TuYa_FishTank_V1.0\souce\dht11.c"
  57  0001  1F00     E  	clr ra
  57  0002              _L10:
  59  0002              #line 59 "E:\Project\17.HT66F4560_EVM_V1.0\CODE\HT66F4560_TuYa_FishTank_V1.0\souce\dht11.c"
  59  0002  3B14        	snz [20].6
  59  0003  2800     R  	jmp _L11
  59  0004  0700     E  	mov a,ra
  59  0005  0A50        	sub a,80
  59  0006  3D0A        	sz z
  59  0007  2800     R  	jmp _L19
  61  0008              #line 61 "E:\Project\17.HT66F4560_EVM_V1.0\CODE\HT66F4560_TuYa_FishTank_V1.0\souce\dht11.c"
  61  0008  1480     E  	inc ra
  61  0009  2800     R  	jmp _L10
  61  000A              _L11:
  63  000A              #line 63 "E:\Project\17.HT66F4560_EVM_V1.0\CODE\HT66F4560_TuYa_FishTank_V1.0\souce\dht11.c"
  63  000A  0700     E  	mov a,ra
  63  000B  0A50        	sub a,80
"File: dht11.c       Assembler  Version HGASM0202      Page 7

  63  000C  3D0A        	sz z
  63  000D  2800     R  	jmp _L19
  63  000E  1F00     E  	clr rb
  63  000F              _L14:
  63  000F              #pragma debug scope 6 5
  63  000F              ;begin block, line: 63.-1
  63  000F              #pragma debug scope 7 6
  63  000F              ;begin block, line: 63.-1
  71  000F              #line 71 "E:\Project\17.HT66F4560_EVM_V1.0\CODE\HT66F4560_TuYa_FishTank_V1.0\souce\dht11.c"
  71  000F  3F14        	sz [20].6
  71  0010  2800     R  	jmp _L15
  71  0011  0700     E  	mov a,rb
  71  0012  0A50        	sub a,80
  71  0013  3D0A        	sz z
  71  0014  2800     R  	jmp _L19
  73  0015              #line 73 "E:\Project\17.HT66F4560_EVM_V1.0\CODE\HT66F4560_TuYa_FishTank_V1.0\souce\dht11.c"
  73  0015  1480     E  	inc rb
  73  0016  2800     R  	jmp _L14
  73  0017              _L15:
  75  0017              #line 75 "E:\Project\17.HT66F4560_EVM_V1.0\CODE\HT66F4560_TuYa_FishTank_V1.0\souce\dht11.c"
  75  0017  0F01        	mov a,1
  75  0018  0080     E  	mov ra,a
  75  0019  0700     E  	mov a,rb
  75  001A  0A50        	sub a,80
  75  001B  3D0A        	sz z
  75  001C  2800     R  	jmp _L13
  75  001D  1F00     E  	clr ra
  75  001E  2800     R  	jmp _L13
  75  001F              _L19:
  75  001F              #pragma debug scope 6 5
  75  001F              #pragma debug scope 5 1
  65  001F              #line 65 "E:\Project\17.HT66F4560_EVM_V1.0\CODE\HT66F4560_TuYa_FishTank_V1.0\souce\dht11.c"
  65  001F  0F01        	mov a,1
  65  0020  0080     E  	mov ra,a
  65  0021              _L13:
  84  0021              #line 84 "E:\Project\17.HT66F4560_EVM_V1.0\CODE\HT66F4560_TuYa_FishTank_V1.0\souce\dht11.c"
  84  0021  0700     E  	mov a,ra
  84  0022  0003        	ret
  84  0023              _DHT11_Check endp
  84  0023              #line 84 "E:\Project\17.HT66F4560_EVM_V1.0\CODE\HT66F4560_TuYa_FishTank_V1.0\souce\dht11.c"
  84  0023              #pragma debug scope 1 1
  84  0023              public _DHT11_Read_Bit
  84  0023              #pragma debug scope 8 1
  88  0023              #line 88 "E:\Project\17.HT66F4560_EVM_V1.0\CODE\HT66F4560_TuYa_FishTank_V1.0\souce\dht11.c"
  88  0000              _DHT11_Read_Bit .section 'code'
  88  0000              _DHT11_Read_Bit proc
  90  0000              #line 90 "E:\Project\17.HT66F4560_EVM_V1.0\CODE\HT66F4560_TuYa_FishTank_V1.0\souce\dht11.c"
  90  0000  3315        	set [21].6
  92  0001              #line 92 "E:\Project\17.HT66F4560_EVM_V1.0\CODE\HT66F4560_TuYa_FishTank_V1.0\souce\dht11.c"
  92  0001  0F65        	mov a,101
  92  0002  0080     E  	mov ra,a
  92  0003              _L24:
  92  0003              #line 92 "E:\Project\17.HT66F4560_EVM_V1.0\CODE\HT66F4560_TuYa_FishTank_V1.0\souce\dht11.c"
  92  0003  3B14        	snz [20].6
  92  0004  2800     R  	jmp _L25
  92  0005  1780     E  	sdz ra
  92  0006  2800     R  	jmp _L24
  92  0007              _L25:
  92  0007  0F65        	mov a,101
  92  0008  0080     E  	mov ra,a
"File: dht11.c       Assembler  Version HGASM0202      Page 8

  92  0009              _L27:
  97  0009              #line 97 "E:\Project\17.HT66F4560_EVM_V1.0\CODE\HT66F4560_TuYa_FishTank_V1.0\souce\dht11.c"
  97  0009  3F14        	sz [20].6
  97  000A  2800     R  	jmp _L28
  97  000B  1780     E  	sdz ra
  97  000C  2800     R  	jmp _L27
  97  000D              _L28:
 101  000D              #line 101 "E:\Project\17.HT66F4560_EVM_V1.0\CODE\HT66F4560_TuYa_FishTank_V1.0\souce\dht11.c"
 101  000D              ;# 101 "E:\Project\17.HT66F4560_EVM_V1.0\CODE\HT66F4560_TuYa_FishTank_V1.0\souce\dht11.c" 1
 101  000D              	IF 50>263690
 101  000D              ;# 101 "E:\Project\17.HT66F4560_EVM_V1.0\CODE\HT66F4560_TuYa_FishTank_V1.0\souce\dht11.c" 1
 101  000D              	ERRMESSAGE 'the value 50of the argument exceeds the maxinum 263690'
 101  000D              	ENDIF
 101  000D              ;# 101 "E:\Project\17.HT66F4560_EVM_V1.0\CODE\HT66F4560_TuYa_FishTank_V1.0\souce\dht11.c" 1
 101  000D              	IF 50<0
 101  000D              ;# 101 "E:\Project\17.HT66F4560_EVM_V1.0\CODE\HT66F4560_TuYa_FishTank_V1.0\souce\dht11.c" 1
 101  000D              	ERRMESSAGE 'the value 50 of the argument exceeds the mininum 0'
 101  000D              	ENDIF
 101  000D              ;# 101 "E:\Project\17.HT66F4560_EVM_V1.0\CODE\HT66F4560_TuYa_FishTank_V1.0\souce\dht11.c" 1
 101  000D              	IF 50==0
 101  000D              ;# 101 "E:\Project\17.HT66F4560_EVM_V1.0\CODE\HT66F4560_TuYa_FishTank_V1.0\souce\dht11.c" 1
 101  000D              	JMP $
 101  000D              	ENDIF
 101  000D              ;# 101 "E:\Project\17.HT66F4560_EVM_V1.0\CODE\HT66F4560_TuYa_FishTank_V1.0\souce\dht11.c" 1
 101  000D              	IF (50>=1) AND (50<( 4 + __PBP__ * 2))
 101  000D              ;# 101 "E:\Project\17.HT66F4560_EVM_V1.0\CODE\HT66F4560_TuYa_FishTank_V1.0\souce\dht11.c" 1
 101  000D              	NOP
 101  000D              	ENDIF
 101  000D              ;# 101 "E:\Project\17.HT66F4560_EVM_V1.0\CODE\HT66F4560_TuYa_FishTank_V1.0\souce\dht11.c" 1
 101  000D              	IF (50>=2) AND (50<( 4 + __PBP__ * 2))
 101  000D              ;# 101 "E:\Project\17.HT66F4560_EVM_V1.0\CODE\HT66F4560_TuYa_FishTank_V1.0\souce\dht11.c" 1
 101  000D              	NOP
 101  000D              	ENDIF
 101  000D              ;# 101 "E:\Project\17.HT66F4560_EVM_V1.0\CODE\HT66F4560_TuYa_FishTank_V1.0\souce\dht11.c" 1
 101  000D              	IF (50>=3) AND (50<( 4 + __PBP__ * 2))
 101  000D              ;# 101 "E:\Project\17.HT66F4560_EVM_V1.0\CODE\HT66F4560_TuYa_FishTank_V1.0\souce\dht11.c" 1
 101  000D              	NOP
 101  000D              	ENDIF
 101  000D              ;# 101 "E:\Project\17.HT66F4560_EVM_V1.0\CODE\HT66F4560_TuYa_FishTank_V1.0\souce\dht11.c" 1
 101  000D              	IF (50>=4) AND (50<( 4 + __PBP__ * 2)) AND ( __PBP__ > 0 )
 101  000D              ;# 101 "E:\Project\17.HT66F4560_EVM_V1.0\CODE\HT66F4560_TuYa_FishTank_V1.0\souce\dht11.c" 1
 101  000D              	NOP
 101  000D              	ENDIF
 101  000D              ;# 101 "E:\Project\17.HT66F4560_EVM_V1.0\CODE\HT66F4560_TuYa_FishTank_V1.0\souce\dht11.c" 1
 101  000D              	IF (50>=5) AND (50<( 4 + __PBP__ * 2)) AND ( __PBP__ > 0 )
 101  000D              ;# 101 "E:\Project\17.HT66F4560_EVM_V1.0\CODE\HT66F4560_TuYa_FishTank_V1.0\souce\dht11.c" 1
 101  000D              	NOP
 101  000D              	ENDIF
 101  000D              ;# 101 "E:\Project\17.HT66F4560_EVM_V1.0\CODE\HT66F4560_TuYa_FishTank_V1.0\souce\dht11.c" 1
 101  000D              	IF (50>=6) AND (50<( 4 + __PBP__ * 2))  AND ( __PBP__ > 1 )
 101  000D              ;# 101 "E:\Project\17.HT66F4560_EVM_V1.0\CODE\HT66F4560_TuYa_FishTank_V1.0\souce\dht11.c" 1
 101  000D              	NOP
 101  000D              	ENDIF
 101  000D              ;# 101 "E:\Project\17.HT66F4560_EVM_V1.0\CODE\HT66F4560_TuYa_FishTank_V1.0\souce\dht11.c" 1
 101  000D              	IF (50>=7) AND (50<( 4 + __PBP__ * 2))  AND ( __PBP__ > 1 )
 101  000D              ;# 101 "E:\Project\17.HT66F4560_EVM_V1.0\CODE\HT66F4560_TuYa_FishTank_V1.0\souce\dht11.c" 1
 101  000D              	NOP
 101  000D              	ENDIF
 101  000D              ;# 101 "E:\Project\17.HT66F4560_EVM_V1.0\CODE\HT66F4560_TuYa_FishTank_V1.0\souce\dht11.c" 1
 101  000D              	IF (50>=8) AND (50<( 4 + __PBP__ * 2))  AND ( __PBP__ > 2 )
"File: dht11.c       Assembler  Version HGASM0202      Page 9

 101  000D              ;# 101 "E:\Project\17.HT66F4560_EVM_V1.0\CODE\HT66F4560_TuYa_FishTank_V1.0\souce\dht11.c" 1
 101  000D              	NOP
 101  000D              	ENDIF
 101  000D              ;# 101 "E:\Project\17.HT66F4560_EVM_V1.0\CODE\HT66F4560_TuYa_FishTank_V1.0\souce\dht11.c" 1
 101  000D              	IF (50==9)  AND ( __PBP__ > 2 )
 101  000D              ;# 101 "E:\Project\17.HT66F4560_EVM_V1.0\CODE\HT66F4560_TuYa_FishTank_V1.0\souce\dht11.c" 1
 101  000D              	NOP
 101  000D              	ENDIF
 101  000D              ;# 101 "E:\Project\17.HT66F4560_EVM_V1.0\CODE\HT66F4560_TuYa_FishTank_V1.0\souce\dht11.c" 1
 101  000D              	IF (50< ( 8 + __PBP__ * 2)) AND (50>( 3 + __PBP__ * 2))
 101  000D              ;# 101 "E:\Project\17.HT66F4560_EVM_V1.0\CODE\HT66F4560_TuYa_FishTank_V1.0\souce\dht11.c" 1
 101  000D              	fcall __DELAY3 + ( 7 + __PBP__ * 2) -50
 101  000D              	ENDIF
 101  000D              ;# 101 "E:\Project\17.HT66F4560_EVM_V1.0\CODE\HT66F4560_TuYa_FishTank_V1.0\souce\dht11.c" 1
 101  000D              	IF (50< ( 0404h + __PBP__ * 2)) AND (50>( 7 + __PBP__ * 2))
 101  000D              ;# 101 "E:\Project\17.HT66F4560_EVM_V1.0\CODE\HT66F4560_TuYa_FishTank_V1.0\souce\dht11.c" 1
 101  000D  0F0B        	MOV A,(50-( 4 + __PBP__ * 2))/4
 101  000E              ;# 101 "E:\Project\17.HT66F4560_EVM_V1.0\CODE\HT66F4560_TuYa_FishTank_V1.0\souce\dht11.c" 1
 101  000E              	fcall __DELAYX3 + 3 -((50-( 4 + __PBP__ * 2)) MOD 4) 
 101  0015              	ENDIF
 101  0015              ;# 101 "E:\Project\17.HT66F4560_EVM_V1.0\CODE\HT66F4560_TuYa_FishTank_V1.0\souce\dht11.c" 1
 101  0015              	IF (50< ( 040bh + __PBP__ * 2)) AND (50> ( 0403h + __PBP__ * 2))
 101  0015              ;# 101 "E:\Project\17.HT66F4560_EVM_V1.0\CODE\HT66F4560_TuYa_FishTank_V1.0\souce\dht11.c" 1
 101  0015              	MOV A,0 
 101  0015              ;# 101 "E:\Project\17.HT66F4560_EVM_V1.0\CODE\HT66F4560_TuYa_FishTank_V1.0\souce\dht11.c" 1
 101  0015              	fcall __DELAYX6 + ( 040ah + __PBP__ * 2) -50
 101  0015              	ENDIF
 101  0015              ;# 101 "E:\Project\17.HT66F4560_EVM_V1.0\CODE\HT66F4560_TuYa_FishTank_V1.0\souce\dht11.c" 1
 101  0015              	IF (50 >= ( 040bh + __PBP__ * 2)) AND ((((50-( 9 + __PBP__ * 2))%0402h)/4+1)>256)
 101  0015              ;# 101 "E:\Project\17.HT66F4560_EVM_V1.0\CODE\HT66F4560_TuYa_FishTank_V1.0\souce\dht11.c" 1
 101  0015              	MOV A,(50-( 9 + __PBP__ * 2))/0402h
 101  0015              ;# 101 "E:\Project\17.HT66F4560_EVM_V1.0\CODE\HT66F4560_TuYa_FishTank_V1.0\souce\dht11.c" 1
 101  0015              	MOV _builtin_holtek_delay_2,A
 101  0015              ;# 101 "E:\Project\17.HT66F4560_EVM_V1.0\CODE\HT66F4560_TuYa_FishTank_V1.0\souce\dht11.c" 1
 101  0015              	MOV A,0
 101  0015              ;# 101 "E:\Project\17.HT66F4560_EVM_V1.0\CODE\HT66F4560_TuYa_FishTank_V1.0\souce\dht11.c" 1
 101  0015              	fcall __DELAYY5 +5- (((50-( 9 + __PBP__ * 2))%0402h)%6) 
 101  0015              	ENDIF
 101  0015              ;# 101 "E:\Project\17.HT66F4560_EVM_V1.0\CODE\HT66F4560_TuYa_FishTank_V1.0\souce\dht11.c" 1
 101  0015              	IF (50 >= ( 040bh + __PBP__ * 2)) AND ((((50-( 9 + __PBP__ * 2))%0402h)/4+1)<=256)
 101  0015              ;# 101 "E:\Project\17.HT66F4560_EVM_V1.0\CODE\HT66F4560_TuYa_FishTank_V1.0\souce\dht11.c" 1
 101  0015              	MOV A,(50-( 9 + __PBP__ * 2))/0402h
 101  0015              ;# 101 "E:\Project\17.HT66F4560_EVM_V1.0\CODE\HT66F4560_TuYa_FishTank_V1.0\souce\dht11.c" 1
 101  0015              	MOV _builtin_holtek_delay_2,A
 101  0015              ;# 101 "E:\Project\17.HT66F4560_EVM_V1.0\CODE\HT66F4560_TuYa_FishTank_V1.0\souce\dht11.c" 1
 101  0015              	MOV A,((50-( 9 + __PBP__ * 2))%0402h)/4+1
 101  0015              ;# 101 "E:\Project\17.HT66F4560_EVM_V1.0\CODE\HT66F4560_TuYa_FishTank_V1.0\souce\dht11.c" 1
 101  0015              	fcall __DELAYY3 +3-(((50-( 9 + __PBP__ * 2))%0402h)%4) 
 101  0015              	ENDIF
 102  0015              #line 102 "E:\Project\17.HT66F4560_EVM_V1.0\CODE\HT66F4560_TuYa_FishTank_V1.0\souce\dht11.c"
 102  0015  1F00     E  	clr ra
 102  0016  3F14        	sz [20].6
 102  0017  1480     E  	inc ra
 104  0018              #line 104 "E:\Project\17.HT66F4560_EVM_V1.0\CODE\HT66F4560_TuYa_FishTank_V1.0\souce\dht11.c"
 104  0018  0700     E  	mov a,ra
 104  0019  0003        	ret
 104  001A              _DHT11_Read_Bit endp
 104  001A              #line 104 "E:\Project\17.HT66F4560_EVM_V1.0\CODE\HT66F4560_TuYa_FishTank_V1.0\souce\dht11.c"
 104  001A              #pragma debug scope 1 1
 104  001A              public _DHT11_Read_Byte
"File: dht11.c       Assembler  Version HGASM0202      Page 10

 104  001A              #pragma debug scope 9 1
 108  001A              #line 108 "E:\Project\17.HT66F4560_EVM_V1.0\CODE\HT66F4560_TuYa_FishTank_V1.0\souce\dht11.c"
 108  0000              _DHT11_Read_Byte .section 'code'
 108  0000              _DHT11_Read_Byte proc
 108  0000  0002[           local _DHT11_Read_Byte_2 db 2 dup(?)	; 0,2
            00
            ]
 108  0000  0F08        	mov a,8
 108  0001  0080     R  	mov _DHT11_Read_Byte_2[0],a
 110  0002              #line 110 "E:\Project\17.HT66F4560_EVM_V1.0\CODE\HT66F4560_TuYa_FishTank_V1.0\souce\dht11.c"
 110  0002  1F00     E  	clr ra
 110  0003              _L35:
 113  0003              #line 113 "E:\Project\17.HT66F4560_EVM_V1.0\CODE\HT66F4560_TuYa_FishTank_V1.0\souce\dht11.c"
 113  0003  0700     E  	mov a,ra
 113  0004  0300     E  	add a,ra
 113  0005  0080     R  	mov _DHT11_Read_Byte_2[1],a
 114  0006              #line 114 "E:\Project\17.HT66F4560_EVM_V1.0\CODE\HT66F4560_TuYa_FishTank_V1.0\souce\dht11.c"
 114  0006              	fcall _DHT11_Read_Bit
 114  000D  0080     E  	mov ra,a
 114  000E  0700     R  	mov a,_DHT11_Read_Byte_2[1]
 114  000F  0580     E  	orm a,ra
 114  0010  1780     R  	sdz _DHT11_Read_Byte_2[0]
 114  0011  2800     R  	jmp _L35
 117  0012              #line 117 "E:\Project\17.HT66F4560_EVM_V1.0\CODE\HT66F4560_TuYa_FishTank_V1.0\souce\dht11.c"
 117  0012  0700     E  	mov a,ra
 117  0013  0003        	ret
 117  0014              _DHT11_Read_Byte endp
 117  0014              #line 117 "E:\Project\17.HT66F4560_EVM_V1.0\CODE\HT66F4560_TuYa_FishTank_V1.0\souce\dht11.c"
 117  0014              #pragma debug scope 1 1
 117  0014              public _DHT11_Read_Data
 117  0014              #pragma debug scope 10 1
 124  0014              #line 124 "E:\Project\17.HT66F4560_EVM_V1.0\CODE\HT66F4560_TuYa_FishTank_V1.0\souce\dht11.c"
 124  0000              _DHT11_Read_Data .section 'code'
 124  0000              _DHT11_Read_Data proc
 124  0000  0007[           local _DHT11_Read_Data_2 db 7 dup(?)	; 0,7
            00
            ]
 124  0007              #pragma debug array 42 8 5 10
 124  0007              #pragma debug array 42 8 5 10
 124  0007              #pragma debug variable 42 10 _DHT11_Read_Data_2+0 "buf"
 124  0007              #pragma debug variable 8 10 _DHT11_Read_Data_2+6 "i"
 127  0007              #line 127 "E:\Project\17.HT66F4560_EVM_V1.0\CODE\HT66F4560_TuYa_FishTank_V1.0\souce\dht11.c"
 127  0000              	fcall _DHT11_Rst
 129  0007              #line 129 "E:\Project\17.HT66F4560_EVM_V1.0\CODE\HT66F4560_TuYa_FishTank_V1.0\souce\dht11.c"
 129  0007              	fcall _DHT11_Check
 129  000E  0080     E  	mov ra,a
 129  000F  1080     E  	sz ra
 129  0010  2800     R  	jmp _L36
 129  0011              #line 129 "E:\Project\17.HT66F4560_EVM_V1.0\CODE\HT66F4560_TuYa_FishTank_V1.0\souce\dht11.c"
 129  0011  0F05        	mov a,5
 129  0012  0080     R  	mov _DHT11_Read_Data_2[5],a
 129  0013  1F00     R  	clr _DHT11_Read_Data_2[6]
 129  0014              _L40:
 133  0014              #line 133 "E:\Project\17.HT66F4560_EVM_V1.0\CODE\HT66F4560_TuYa_FishTank_V1.0\souce\dht11.c"
 133  0014              	fcall _DHT11_Read_Byte
 133  001B  0080     E  	mov ra,a
 133  001C  0F00     R  	mov a,low offset _DHT11_Read_Data_2
 133  001D  0080     E  	mov rb,a
 133  001E  0F00     R  	mov a,high offset _DHT11_Read_Data_2
 133  001F  0080     E  	mov rc,a
"File: dht11.c       Assembler  Version HGASM0202      Page 11

 133  0020  0700     R  	mov a,_DHT11_Read_Data_2[6]
 133  0021  0300     E  	add a,rb
 133  0022  0083        	mov mp,a
 133  0023  1F05        	clr acc
 133  0024  1300     E  	adc a,rc
 133  0025  0084        	mov sbp,a
 133  0026  0700     E  	mov a,ra
 133  0027  0082        	mov ir,a
 131  0028              #line 131 "E:\Project\17.HT66F4560_EVM_V1.0\CODE\HT66F4560_TuYa_FishTank_V1.0\souce\dht11.c"
 131  0028  1480     R  	inc _DHT11_Read_Data_2[6]
 131  0029  1780     R  	sdz _DHT11_Read_Data_2[5]
 131  002A  2800     R  	jmp _L40
 135  002B              #line 135 "E:\Project\17.HT66F4560_EVM_V1.0\CODE\HT66F4560_TuYa_FishTank_V1.0\souce\dht11.c"
 135  002B  0700     R  	mov a,_DHT11_Read_Data_2[0]
 135  002C  0080     E  	mov rg,a
 135  002D  0700     R  	mov a,_DHT11_Read_Data_2[2]
 135  002E  0080     E  	mov rf,a
 135  002F  0700     R  	mov a,_DHT11_Read_Data_2[3]
 135  0030  0080     E  	mov ra,a
 135  0031  0700     E  	mov a,rg
 135  0032  0080     E  	mov rd,a
 135  0033  1F00     E  	clr re
 135  0034  0700     R  	mov a,_DHT11_Read_Data_2[1]
 135  0035  0380     E  	addm a,rd
 135  0036  3C0A        	sz c
 135  0037  1480     E  	inc re
 135  0038  0700     E  	mov a,rf
 135  0039  0380     E  	addm a,rd
 135  003A  3C0A        	sz c
 135  003B  1480     E  	inc re
 135  003C  0700     E  	mov a,ra
 135  003D  0380     E  	addm a,rd
 135  003E  3C0A        	sz c
 135  003F  1480     E  	inc re
 135  0040  0700     R  	mov a,_DHT11_Read_Data_2[4]
 135  0041  0080     E  	mov rb,a
 135  0042  1F00     E  	clr rc
 135  0043  0700     E  	mov a,rd
 135  0044  0200     E  	sub a,rb
 135  0045  0700     E  	mov a,re
 135  0046  1200     E  	sbc a,rc
 135  0047  3B0A        	snz cz
 135  0048  2800     R  	jmp _L36
 141  0049              #line 141 "E:\Project\17.HT66F4560_EVM_V1.0\CODE\HT66F4560_TuYa_FishTank_V1.0\souce\dht11.c"
 141  0049  0700     E  	mov a,rg
 141  004A  0080     R  	mov _hum_N[0],a
 142  004B              #line 142 "E:\Project\17.HT66F4560_EVM_V1.0\CODE\HT66F4560_TuYa_FishTank_V1.0\souce\dht11.c"
 142  004B  0700     E  	mov a,rf
 142  004C  0080     R  	mov _temp_N[0],a
 143  004D              #line 143 "E:\Project\17.HT66F4560_EVM_V1.0\CODE\HT66F4560_TuYa_FishTank_V1.0\souce\dht11.c"
 143  004D  0700     E  	mov a,ra
 143  004E  0080     R  	mov _temp_Dio[0],a
 143  004F              _L36:
 143  004F  0003        	ret
 143  0050              _DHT11_Read_Data endp
 143  0050              #line 143 "E:\Project\17.HT66F4560_EVM_V1.0\CODE\HT66F4560_TuYa_FishTank_V1.0\souce\dht11.c"
 143  0050              #pragma debug scope 1 1
 143  0050              public _DHT11_Init
 143  0050              #pragma debug scope 11 1
 153  0050              #line 153 "E:\Project\17.HT66F4560_EVM_V1.0\CODE\HT66F4560_TuYa_FishTank_V1.0\souce\dht11.c"
"File: dht11.c       Assembler  Version HGASM0202      Page 12

 153  0000              _DHT11_Init .section 'code'
 153  0000              _DHT11_Init proc
 154  0000              #line 154 "E:\Project\17.HT66F4560_EVM_V1.0\CODE\HT66F4560_TuYa_FishTank_V1.0\souce\dht11.c"
 154  0000  3715        	clr [21].6
 155  0001              #line 155 "E:\Project\17.HT66F4560_EVM_V1.0\CODE\HT66F4560_TuYa_FishTank_V1.0\souce\dht11.c"
 155  0001              	fcall _DHT11_Rst
 156  0008              #line 156 "E:\Project\17.HT66F4560_EVM_V1.0\CODE\HT66F4560_TuYa_FishTank_V1.0\souce\dht11.c"
 156  0008              	fcall _DHT11_Check
 156  000F  0080     E  	mov ra,a
 157  0010              #line 157 "E:\Project\17.HT66F4560_EVM_V1.0\CODE\HT66F4560_TuYa_FishTank_V1.0\souce\dht11.c"
 157  0010  0700     E  	mov a,ra
 157  0011  0003        	ret
 157  0012              _DHT11_Init endp
 157  0012              #line 157 "E:\Project\17.HT66F4560_EVM_V1.0\CODE\HT66F4560_TuYa_FishTank_V1.0\souce\dht11.c"
 157  0012              #pragma debug scope 1 1
  12  0012              #line 12 "E:\Project\17.HT66F4560_EVM_V1.0\CODE\HT66F4560_TuYa_FishTank_V1.0\souce\dht11.c"
  12  0012              public _hum_N
  12  0000              @HCCINIT0_hum_N .section 'data'
  12  0000              _hum_N	db 0
  12  0001              #pragma debug variable 8 1 _hum_N "hum_N"
  12  0001              
  12  0000              @HCCINIT .section 'data'
  12  0000              #line 12 "E:\Project\17.HT66F4560_EVM_V1.0\CODE\HT66F4560_TuYa_FishTank_V1.0\souce\dht11.c"
  12  0000              public _temp_Dio
  12  0000              @HCCINIT0_temp_Dio .section 'data'
  12  0000              _temp_Dio	db 0
  12  0001              #pragma debug variable 8 1 _temp_Dio "temp_Dio"
  12  0001              
  12  0000              @HCCINIT .section 'data'
  12  0000              #line 12 "E:\Project\17.HT66F4560_EVM_V1.0\CODE\HT66F4560_TuYa_FishTank_V1.0\souce\dht11.c"
  12  0000              public _temp_N
  12  0000              @HCCINIT0_temp_N .section 'data'
  12  0000              _temp_N	db 0
  12  0001              #pragma debug variable 8 1 _temp_N "temp_N"
  12  0001              
  12  0000              @HCCINIT .section 'data'
  12  0000              #pragma debug struct_end
  12  0000              #pragma debug struct_end
  12  0000              #pragma debug union_end
  12  0000              #pragma debug union_end
  12  0000              #pragma debug variable 44 1 ___pa "__pa" 1
  12  0000              #pragma debug struct_end
  12  0000              #pragma debug struct_end
  12  0000              #pragma debug union_end
  12  0000              #pragma debug union_end
  12  0000              #pragma debug variable 46 1 ___pac "__pac" 1
  12  0000              
  12  0000              ; 
  12  0000              ; Generated by holtek-gcc v3.19, Thu Mar 25 17:35:56 2021
  12  0000              ; Rebuild 718
  12  0000              ; end of file


        0 Errors, 0