"File: Drv_Timers.c  Assembler  Version HGASM0202      Page 1


   1  0000              ; Generated by holtek-gcc v3.19, Thu Mar 25 17:35:57 2021
   2  0000              ; 
   3  0000              ; Configuration:
   4  0000              ;       with long instruction
   5  0000              ;       Multi-ROM, Multi-RAM
   6  0000              ;       bits_per_rom_unit:16
   7  0000              ;       with mp1
   8  0000              ;       with tbhp, address(0x9)
   9  0000              ;          Use tabrd-const
  10  0000              ;       
  11  0000              ; SFR address of long-instruction arch:
  12  0000              ;    mp0 = -1,1,0
  13  0000              ;    mp1 = 4,3,2
  14  0000              ;    mp2 = 14,13,12
  15  0000              ;    tbp = 9,7,8
  16  0000              ;    acc = 5
  17  0000              ;    pcl = 6
  18  0000              ;    status = 10
  19  0000              ;    bp = 11
  20  0000              ;    intc = 75
  21  0000              ;       
  22  0000              ;       
  23  0000              ; use 'tabrdc' instead of 'tabrd'
  24  0000              ;       
  25  0000              
  26  0000              #pragma translator "holtek-gcc 4.6.4" "3.19" "build 20130711"
  27  0000              ; Rebuild 718
  28  0000              
  29  0000              ir equ [2]
  30  0000              mp equ [3]
  31  0000              sbp equ [4]
  32  0000              acc equ [5]
  33  0000              bp equ [11]
  34  0000              tblp equ [7]
  35  0000              tbhp equ [9]
  36  0000              status equ [10]
  37  0000              c equ [10].0
  38  0000              ac equ [10].1
  39  0000              z equ [10].2
  40  0000              ov equ [10].3
  41  0000              cz equ [10].6
  42  0000              sc equ [10].7
  43  0000              intc equ [75]
  44  0000              
  45  0000              extern ra:byte
  46  0000              extern rb:byte
  47  0000              extern rc:byte
  48  0000              extern rd:byte
  49  0000              extern re:byte
  50  0000              extern rf:byte
  51  0000              extern rg:byte
  52  0000              extern rh:byte
  53  0000              extern _Crom2Prom:near
  54  0000              extern _Crom2PromNext:near
  55  0000              
  56  0000              RAMBANK 0 @BITDATASEC, @BITDATASEC1
  57  0000              @HCCINIT	.section 'data'
  58  0000              @HCCINIT0	.section 'data'
  59  0000              @BITDATASEC	 .section 'data'
"File: Drv_Timers.ASM  Assembler  Version HGASM0202      Page 2

  60  0000              @BITDATASEC1	 .section 'data'
  61  0000              
  62  0000              #pragma debug scope 1 1
  63  0000              	extern __DELAY3:near
  64  0000              	extern __DELAYX3:near
  65  0000              	extern __DELAYX6:near
  66  0000              	extern __DELAYY5:near
  67  0000              	extern __DELAYY3:near
  68  0000              	extern _builtin_holtek_delay_2:byte
  69  0000              ___mfi0 equ [79]
  70  0000              ___pa equ [20]
  71  0000              public _MuFunction0_ISR
  72  0000              #pragma debug scope 2 1

  15  0000              #line 15 "E:\Project\17.HT66F4560_EVM_V1.0\CODE\HT66F4560_TuYa_FishTank_V1.0\souce\Drv_Timers.c"
  15  0000              rombank 0 @MuFunction0_ISR_code
  15  0000              @MuFunction0_ISR_code .section at 12 'code'
  15  0000  0080     E  	mov r1,a
  15  0001  070B        	mov a,bp
  15  0002  1F0B        	clr bp
  15  0003  2800     R  	jmp _MuFunction0_ISR
  15  0004              ROMBANK 0 _MuFunction0_ISR
  15  0004              #pragma debug scope 1 1
  15  0004              @dummy12 endp
  15  0004              #pragma debug scope 3 1
  15  0000              _MuFunction0_ISR .section 'code'
  15  0000              _MuFunction0_ISR proc
  15  0000  0080     E  	mov r2,a
  15  0001  070A        	mov a, status
  15  0002  0080     E  	mov r3,a
  16  0003              #line 16 "E:\Project\17.HT66F4560_EVM_V1.0\CODE\HT66F4560_TuYa_FishTank_V1.0\souce\Drv_Timers.c"
  16  0003  3ACF        	snz [79].5
  16  0004  2800     R  	jmp _L2
  18  0005              #line 18 "E:\Project\17.HT66F4560_EVM_V1.0\CODE\HT66F4560_TuYa_FishTank_V1.0\souce\Drv_Timers.c"
  18  0005  36CF        	clr [79].5
  20  0006              #line 20 "E:\Project\17.HT66F4560_EVM_V1.0\CODE\HT66F4560_TuYa_FishTank_V1.0\souce\Drv_Timers.c"
  20  0006  1F00     E  	clr ra
  20  0007  3A14        	snz [20].4
  20  0008  3000     E  	set ra.4
  20  0009  3614        	clr [20].4
  20  000A  0700     E  	mov a,ra
  20  000B  0594        	orm a,[20]
  20  000C  2800     R  	jmp _L3
  20  000D              _L2:
  22  000D              #line 22 "E:\Project\17.HT66F4560_EVM_V1.0\CODE\HT66F4560_TuYa_FishTank_V1.0\souce\Drv_Timers.c"
  22  000D  3A4F        	snz [79].4
  22  000E  2800     R  	jmp _L3
  24  000F              #line 24 "E:\Project\17.HT66F4560_EVM_V1.0\CODE\HT66F4560_TuYa_FishTank_V1.0\souce\Drv_Timers.c"
  24  000F  364F        	clr [79].4
  24  0010              _L3:
  27  0010              #line 27 "E:\Project\17.HT66F4560_EVM_V1.0\CODE\HT66F4560_TuYa_FishTank_V1.0\souce\Drv_Timers.c"
  27  0010  3BCF        	snz [79].7
  27  0011  2800     R  	jmp _L4
  29  0012              #line 29 "E:\Project\17.HT66F4560_EVM_V1.0\CODE\HT66F4560_TuYa_FishTank_V1.0\souce\Drv_Timers.c"
  29  0012  37CF        	clr [79].7
  29  0013  2800     R  	jmp _L1
  29  0014              _L4:
  32  0014              #line 32 "E:\Project\17.HT66F4560_EVM_V1.0\CODE\HT66F4560_TuYa_FishTank_V1.0\souce\Drv_Timers.c"
  32  0014  3B4F        	snz [79].6
  32  0015  2800     R  	jmp _L1
"File: Drv_Timers.c  Assembler  Version HGASM0202      Page 3

  34  0016              #line 34 "E:\Project\17.HT66F4560_EVM_V1.0\CODE\HT66F4560_TuYa_FishTank_V1.0\souce\Drv_Timers.c"
  34  0016  374F        	clr [79].6
  34  0017              _L1:
  34  0017  0700     E  	mov a,r2
  34  0018  008B        	mov bp,a
  34  0019  0700     E  	mov a,r3
  34  001A  008A        	mov status,a
  34  001B  0700     E  	mov a,r1
  34  001C  0004        	reti
  34  001D              _MuFunction0_ISR endp
  34  001D              
  34  001D              #line 34 "E:\Project\17.HT66F4560_EVM_V1.0\CODE\HT66F4560_TuYa_FishTank_V1.0\souce\Drv_Timers.c"
  34  001D              #pragma debug scope 1 1
  34  001D              public _MuFunction1_ISR
  34  001D              #pragma debug scope 4 1
  41  001D              #line 41 "E:\Project\17.HT66F4560_EVM_V1.0\CODE\HT66F4560_TuYa_FishTank_V1.0\souce\Drv_Timers.c"
  41  001D              rombank 0 @MuFunction1_ISR_code
  41  0000              @MuFunction1_ISR_code .section at 16 'code'
  41  0000              _MuFunction1_ISR:
  41  0000  0004        	reti
  41  0001              #line 41 "E:\Project\17.HT66F4560_EVM_V1.0\CODE\HT66F4560_TuYa_FishTank_V1.0\souce\Drv_Timers.c"
  41  0001              #pragma debug scope 1 1
  41  0001              public _TIMEBASE0_ISR
  41  0001              #pragma debug scope 5 1
  58  0001              #line 58 "E:\Project\17.HT66F4560_EVM_V1.0\CODE\HT66F4560_TuYa_FishTank_V1.0\souce\Drv_Timers.c"
  58  0001              rombank 0 @TIMEBASE0_ISR_code
  58  0000              @TIMEBASE0_ISR_code .section at 24 'code'
  58  0000  0080     E  	mov r1,a
  58  0001  070B        	mov a,bp
  58  0002  1F0B        	clr bp
  58  0003  2800     R  	jmp _TIMEBASE0_ISR
  58  0004              ROMBANK 0 _TIMEBASE0_ISR
  58  0004              #pragma debug scope 1 1
  58  0004              @dummy24 endp
  58  0004              #pragma debug scope 6 1
  58  0000              _TIMEBASE0_ISR .section 'code'
  58  0000              _TIMEBASE0_ISR proc
  58  0000  0080     E  	mov r2,a
  58  0001  070A        	mov a, status
  58  0002  0080     E  	mov r3,a
  60  0003              #line 60 "E:\Project\17.HT66F4560_EVM_V1.0\CODE\HT66F4560_TuYa_FishTank_V1.0\souce\Drv_Timers.c"
  60  0003  3000     R  	set _gbv_Time_Is_1s
  63  0004              #line 63 "E:\Project\17.HT66F4560_EVM_V1.0\CODE\HT66F4560_TuYa_FishTank_V1.0\souce\Drv_Timers.c"
  63  0004  1400     R  	inca ___gu8v_Time_Is_10s_2410[0]
  63  0005  0080     E  	mov ra,a
  64  0006              #line 64 "E:\Project\17.HT66F4560_EVM_V1.0\CODE\HT66F4560_TuYa_FishTank_V1.0\souce\Drv_Timers.c"
  64  0006  0700     E  	mov a,ra
  64  0007  0A05        	sub a,5
  64  0008  3D0A        	sz z
  64  0009  2800     R  	jmp _L15
  63  000A              #line 63 "E:\Project\17.HT66F4560_EVM_V1.0\CODE\HT66F4560_TuYa_FishTank_V1.0\souce\Drv_Timers.c"
  63  000A  0700     E  	mov a,ra
  63  000B  0080     R  	mov ___gu8v_Time_Is_10s_2410[0],a
  63  000C  2800     R  	jmp _L16
  63  000D              _L15:
  66  000D              #line 66 "E:\Project\17.HT66F4560_EVM_V1.0\CODE\HT66F4560_TuYa_FishTank_V1.0\souce\Drv_Timers.c"
  66  000D  1F00     R  	clr ___gu8v_Time_Is_10s_2410[0]
  67  000E              #line 67 "E:\Project\17.HT66F4560_EVM_V1.0\CODE\HT66F4560_TuYa_FishTank_V1.0\souce\Drv_Timers.c"
  67  000E  3000     R  	set _gbv_TuYa_Send_Data_Is_10s
  67  000F              _L16:
"File: Drv_Timers.c  Assembler  Version HGASM0202      Page 4

  71  000F              #line 71 "E:\Project\17.HT66F4560_EVM_V1.0\CODE\HT66F4560_TuYa_FishTank_V1.0\souce\Drv_Timers.c"
  71  000F  1400     R  	inca ___gu8v_Time_Is_5s_2411[0]
  71  0010  0080     E  	mov ra,a
  72  0011              #line 72 "E:\Project\17.HT66F4560_EVM_V1.0\CODE\HT66F4560_TuYa_FishTank_V1.0\souce\Drv_Timers.c"
  72  0011  0700     E  	mov a,ra
  72  0012  0A05        	sub a,5
  72  0013  3D0A        	sz z
  72  0014  2800     R  	jmp _L17
  71  0015              #line 71 "E:\Project\17.HT66F4560_EVM_V1.0\CODE\HT66F4560_TuYa_FishTank_V1.0\souce\Drv_Timers.c"
  71  0015  0700     E  	mov a,ra
  71  0016  0080     R  	mov ___gu8v_Time_Is_5s_2411[0],a
  71  0017  2800     R  	jmp _L14
  71  0018              _L17:
  74  0018              #line 74 "E:\Project\17.HT66F4560_EVM_V1.0\CODE\HT66F4560_TuYa_FishTank_V1.0\souce\Drv_Timers.c"
  74  0018  1F00     R  	clr ___gu8v_Time_Is_5s_2411[0]
  75  0019              #line 75 "E:\Project\17.HT66F4560_EVM_V1.0\CODE\HT66F4560_TuYa_FishTank_V1.0\souce\Drv_Timers.c"
  75  0019  3000     R  	set _gbv_DHT_DS18B20_Is_5s_Start
  75  001A              _L14:
  75  001A  0700     E  	mov a,r2
  75  001B  008B        	mov bp,a
  75  001C  0700     E  	mov a,r3
  75  001D  008A        	mov status,a
  75  001E  0700     E  	mov a,r1
  75  001F  0004        	reti
  75  0020              _TIMEBASE0_ISR endp
  75  0020              
  75  0020              #line 75 "E:\Project\17.HT66F4560_EVM_V1.0\CODE\HT66F4560_TuYa_FishTank_V1.0\souce\Drv_Timers.c"
  75  0020              #pragma debug scope 1 1
  75  0020              public _TIMEBASE1_ISR
  75  0020              #pragma debug scope 7 1
  81  0020              #line 81 "E:\Project\17.HT66F4560_EVM_V1.0\CODE\HT66F4560_TuYa_FishTank_V1.0\souce\Drv_Timers.c"
  81  0020              rombank 0 @TIMEBASE1_ISR_code
  81  0000              @TIMEBASE1_ISR_code .section at 28 'code'
  81  0000  0080     E  	mov r1,a
  81  0001  070B        	mov a,bp
  81  0002  1F0B        	clr bp
  81  0003  2800     R  	jmp _TIMEBASE1_ISR
  81  0004              ROMBANK 0 _TIMEBASE1_ISR
  81  0004              #pragma debug scope 1 1
  81  0004              @dummy28 endp
  81  0004              #pragma debug scope 8 1
  81  0000              _TIMEBASE1_ISR .section 'code'
  81  0000              _TIMEBASE1_ISR proc
  81  0000  0080     E  	mov r2,a
  81  0001  070A        	mov a, status
  81  0002  0080     E  	mov r3,a
  83  0003              #line 83 "E:\Project\17.HT66F4560_EVM_V1.0\CODE\HT66F4560_TuYa_FishTank_V1.0\souce\Drv_Timers.c"
  83  0003  3000     R  	set _gbv_KeyScan_Time_Is_8ms
  86  0004              #line 86 "E:\Project\17.HT66F4560_EVM_V1.0\CODE\HT66F4560_TuYa_FishTank_V1.0\souce\Drv_Timers.c"
  86  0004  1400     R  	inca ___gu8v_Time_Is_300ms_2415[0]
  86  0005  0080     E  	mov ra,a
  87  0006              #line 87 "E:\Project\17.HT66F4560_EVM_V1.0\CODE\HT66F4560_TuYa_FishTank_V1.0\souce\Drv_Timers.c"
  87  0006  0700     E  	mov a,ra
  87  0007  0A26        	sub a,38
  87  0008  3D0A        	sz z
  87  0009  2800     R  	jmp _L20
  86  000A              #line 86 "E:\Project\17.HT66F4560_EVM_V1.0\CODE\HT66F4560_TuYa_FishTank_V1.0\souce\Drv_Timers.c"
  86  000A  0700     E  	mov a,ra
  86  000B  0080     R  	mov ___gu8v_Time_Is_300ms_2415[0],a
  86  000C  2800     R  	jmp _L19
"File: Drv_Timers.c  Assembler  Version HGASM0202      Page 5

  86  000D              _L20:
  89  000D              #line 89 "E:\Project\17.HT66F4560_EVM_V1.0\CODE\HT66F4560_TuYa_FishTank_V1.0\souce\Drv_Timers.c"
  89  000D  1F00     R  	clr ___gu8v_Time_Is_300ms_2415[0]
  90  000E              #line 90 "E:\Project\17.HT66F4560_EVM_V1.0\CODE\HT66F4560_TuYa_FishTank_V1.0\souce\Drv_Timers.c"
  90  000E  3000     R  	set _gbv_wifi_Send_Data_Is_300ms
  90  000F              _L19:
  90  000F  0700     E  	mov a,r2
  90  0010  008B        	mov bp,a
  90  0011  0700     E  	mov a,r3
  90  0012  008A        	mov status,a
  90  0013  0700     E  	mov a,r1
  90  0014  0004        	reti
  90  0015              _TIMEBASE1_ISR endp
  90  0015              
  90  0015              #line 90 "E:\Project\17.HT66F4560_EVM_V1.0\CODE\HT66F4560_TuYa_FishTank_V1.0\souce\Drv_Timers.c"
  90  0015              #pragma debug scope 1 1
  90  0000              @HCCINIT	.section 'data'
  85  0000              #line 85 "E:\Project\17.HT66F4560_EVM_V1.0\CODE\HT66F4560_TuYa_FishTank_V1.0\souce\Drv_Timers.c"
  85  0000              @HCCINIT___gu8v_Time_Is_300ms_2415 .section 'data'
  85  0000              ___gu8v_Time_Is_300ms_2415 label byte
  85  0000              #pragma debug variable 8 8 ___gu8v_Time_Is_300ms_2415 "gu8v_Time_Is_300ms"
  85  0000              	db 0
  85  0000              @ROMDATA_BASE .section inpage 'code'
  85  0000              	db 0
  85  0001              @HCCINIT___gu8v_Time_Is_300ms_2415 .section 'data'
  70  0001              #line 70 "E:\Project\17.HT66F4560_EVM_V1.0\CODE\HT66F4560_TuYa_FishTank_V1.0\souce\Drv_Timers.c"
  70  0000              @HCCINIT___gu8v_Time_Is_5s_2411 .section 'data'
  70  0000              ___gu8v_Time_Is_5s_2411 label byte
  70  0000              #pragma debug variable 8 6 ___gu8v_Time_Is_5s_2411 "gu8v_Time_Is_5s"
  70  0000              	db 0
  70  0001              @ROMDATA_BASE .section inpage 'code'
  70  0001              	db 0
  70  0001              @HCCINIT___gu8v_Time_Is_5s_2411 .section 'data'
  62  0001              #line 62 "E:\Project\17.HT66F4560_EVM_V1.0\CODE\HT66F4560_TuYa_FishTank_V1.0\souce\Drv_Timers.c"
  62  0000              @HCCINIT___gu8v_Time_Is_10s_2410 .section 'data'
  62  0000              ___gu8v_Time_Is_10s_2410 label byte
  62  0000              #pragma debug variable 8 6 ___gu8v_Time_Is_10s_2410 "gu8v_Time_Is_10s"
  62  0000              	db 0
  62  0001              @ROMDATA_BASE .section inpage 'code'
  62  0001              	db 0
  62  0001              @HCCINIT___gu8v_Time_Is_10s_2410 .section 'data'
  53  0001              #line 53 "E:\Project\17.HT66F4560_EVM_V1.0\CODE\HT66F4560_TuYa_FishTank_V1.0\souce\Drv_Timers.c"
  53  0001              public _gbv_Time_Is_8ms
  53  0000              @BITDATASEC .section 'data'
  53  0000  00          _gbv_Time_Is_8ms	dbit 0
  53  0001              #pragma debug variable 2 1 _gbv_Time_Is_8ms "gbv_Time_Is_8ms"
  53  0001              
  53  0000              @HCCINIT .section 'data'
  52  0000              #line 52 "E:\Project\17.HT66F4560_EVM_V1.0\CODE\HT66F4560_TuYa_FishTank_V1.0\souce\Drv_Timers.c"
  52  0000              public _gbv_Time_Is_1s
  52  0001              @BITDATASEC .section 'data'
  52  0000              _gbv_Time_Is_1s	dbit 0
  52  0001              #pragma debug variable 2 1 _gbv_Time_Is_1s "gbv_Time_Is_1s"
  52  0001              
  52  0000              @HCCINIT .section 'data'
  10  0000              #line 10 "E:\Project\17.HT66F4560_EVM_V1.0\CODE\HT66F4560_TuYa_FishTank_V1.0\souce\Drv_Timers.c"
  10  0000              public _gbv_wifi_Send_Data_Is_300ms
  10  0001              @BITDATASEC .section 'data'
  10  0000              _gbv_wifi_Send_Data_Is_300ms	dbit 0
  10  0001              #pragma debug variable 2 1 _gbv_wifi_Send_Data_Is_300ms "gbv_wifi_Send_Data_Is_300ms"
"File: Drv_Timers.c  Assembler  Version HGASM0202      Page 6

  10  0001              
  10  0000              @HCCINIT .section 'data'
   9  0000              #line 9 "E:\Project\17.HT66F4560_EVM_V1.0\CODE\HT66F4560_TuYa_FishTank_V1.0\souce\Drv_Timers.c"
   9  0000              public _gbv_TuYa_Send_Data_Is_10s
   9  0001              @BITDATASEC .section 'data'
   9  0000              _gbv_TuYa_Send_Data_Is_10s	dbit 0
   9  0001              #pragma debug variable 2 1 _gbv_TuYa_Send_Data_Is_10s "gbv_TuYa_Send_Data_Is_10s"
   9  0001              
   9  0000              @HCCINIT .section 'data'
   8  0000              #line 8 "E:\Project\17.HT66F4560_EVM_V1.0\CODE\HT66F4560_TuYa_FishTank_V1.0\souce\Drv_Timers.c"
   8  0000              public _gbv_DHT_DS18B20_Is_5s_Start
   8  0001              @BITDATASEC .section 'data'
   8  0000              _gbv_DHT_DS18B20_Is_5s_Start	dbit 0
   8  0001              #pragma debug variable 2 1 _gbv_DHT_DS18B20_Is_5s_Start "gbv_DHT_DS18B20_Is_5s_Start"
   8  0001              
   8  0000              @HCCINIT .section 'data'
   7  0000              #line 7 "E:\Project\17.HT66F4560_EVM_V1.0\CODE\HT66F4560_TuYa_FishTank_V1.0\souce\Drv_Timers.c"
   7  0000              public _gbv_KeyScan_Time_Is_8ms
   7  0001              @BITDATASEC .section 'data'
   7  0000              _gbv_KeyScan_Time_Is_8ms	dbit 0
   7  0001              #pragma debug variable 2 1 _gbv_KeyScan_Time_Is_8ms "gbv_KeyScan_Time_Is_8ms"
   7  0001              
   7  0000              @HCCINIT .section 'data'
   7  0000              #pragma debug struct_end
   7  0000              #pragma debug struct_end
   7  0000              #pragma debug union_end
   7  0000              #pragma debug union_end
   7  0000              #pragma debug variable 43 1 ___pa "__pa" 1
   7  0000              #pragma debug struct_end
   7  0000              #pragma debug struct_end
   7  0000              #pragma debug union_end
   7  0000              #pragma debug union_end
   7  0000              #pragma debug variable 45 1 ___mfi0 "__mfi0" 1
   7  0000              extern r1:byte
   7  0000              extern r2:byte
   7  0000              extern r3:byte
   7  0000              
   7  0000              ; 
   7  0000              ; Generated by holtek-gcc v3.19, Thu Mar 25 17:35:57 2021
   7  0000              ; Rebuild 718
   7  0000              ; end of file


        0 Errors, 0