"File: ds18b20.c     Assembler  Version HGASM0202      Page 1


   1  0000              ; Generated by holtek-gcc v3.19, Thu Mar 25 17:35:55 2021
   2  0000              ; 
   3  0000              ; Configuration:
   4  0000              ;       with long instruction
   5  0000              ;       Multi-ROM, Multi-RAM
   6  0000              ;       bits_per_rom_unit:16
   7  0000              ;       with mp1
   8  0000              ;       with tbhp, address(0x9)
   9  0000              ;          Use tabrd-const
  10  0000              ;       
  11  0000              ; SFR address of long-instruction arch:
  12  0000              ;    mp0 = -1,1,0
  13  0000              ;    mp1 = 4,3,2
  14  0000              ;    mp2 = 14,13,12
  15  0000              ;    tbp = 9,7,8
  16  0000              ;    acc = 5
  17  0000              ;    pcl = 6
  18  0000              ;    status = 10
  19  0000              ;    bp = 11
  20  0000              ;    intc = 75
  21  0000              ;       
  22  0000              ;       
  23  0000              ; use 'tabrdc' instead of 'tabrd'
  24  0000              ;       
  25  0000              
  26  0000              #pragma translator "holtek-gcc 4.6.4" "3.19" "build 20130711"
  27  0000              ; Rebuild 718
  28  0000              
  29  0000              ir equ [2]
  30  0000              mp equ [3]
  31  0000              sbp equ [4]
  32  0000              acc equ [5]
  33  0000              bp equ [11]
  34  0000              tblp equ [7]
  35  0000              tbhp equ [9]
  36  0000              status equ [10]
  37  0000              c equ [10].0
  38  0000              ac equ [10].1
  39  0000              z equ [10].2
  40  0000              ov equ [10].3
  41  0000              cz equ [10].6
  42  0000              sc equ [10].7
  43  0000              intc equ [75]
  44  0000              
  45  0000              extern ra:byte
  46  0000              extern rb:byte
  47  0000              extern rc:byte
  48  0000              extern rd:byte
  49  0000              extern re:byte
  50  0000              extern rf:byte
  51  0000              extern rg:byte
  52  0000              extern rh:byte
  53  0000              extern _Crom2Prom:near
  54  0000              extern _Crom2PromNext:near
  55  0000              
  56  0000              RAMBANK 0 @BITDATASEC, @BITDATASEC1
  57  0000              @HCCINIT	.section 'data'
  58  0000              @HCCINIT0	.section 'data'
  59  0000              @BITDATASEC	 .section 'data'
"File: ds18b20.ASM   Assembler  Version HGASM0202      Page 2

  60  0000              @BITDATASEC1	 .section 'data'
  61  0000              
  62  0000              #pragma debug scope 1 1
  63  0000              	extern __DELAY3:near
  64  0000              	extern __DELAYX3:near
  65  0000              	extern __DELAYX6:near
  66  0000              	extern __DELAYY5:near
  67  0000              	extern __DELAYY3:near
  68  0000              	extern _builtin_holtek_delay_2:byte
  69  0000              ___pec equ [361]
  70  0000              ___pe equ [360]
  71  0000              public _DS18B20_Rst
  72  0000              #pragma debug scope 2 1

  21  0000              #line 21 "E:\Project\17.HT66F4560_EVM_V1.0\CODE\HT66F4560_TuYa_FishTank_V1.0\souce\ds18b20.c"
  21  0000              _DS18B20_Rst .section 'code'
  21  0000              _DS18B20_Rst proc
  22  0000              #line 22 "E:\Project\17.HT66F4560_EVM_V1.0\CODE\HT66F4560_TuYa_FishTank_V1.0\souce\ds18b20.c"
  22  0000  B669 0001   	lclr [361].4
  23  0002              #line 23 "E:\Project\17.HT66F4560_EVM_V1.0\CODE\HT66F4560_TuYa_FishTank_V1.0\souce\ds18b20.c"
  23  0002  B668 0001   	lclr [360].4
  24  0004              #line 24 "E:\Project\17.HT66F4560_EVM_V1.0\CODE\HT66F4560_TuYa_FishTank_V1.0\souce\ds18b20.c"
  24  0004              ;# 24 "E:\Project\17.HT66F4560_EVM_V1.0\CODE\HT66F4560_TuYa_FishTank_V1.0\souce\ds18b20.c" 1
  24  0004              	IF 1200>263690
  24  0004              ;# 24 "E:\Project\17.HT66F4560_EVM_V1.0\CODE\HT66F4560_TuYa_FishTank_V1.0\souce\ds18b20.c" 1
  24  0004              	ERRMESSAGE 'the value 1200of the argument exceeds the maxinum 263690'
  24  0004              	ENDIF
  24  0004              ;# 24 "E:\Project\17.HT66F4560_EVM_V1.0\CODE\HT66F4560_TuYa_FishTank_V1.0\souce\ds18b20.c" 1
  24  0004              	IF 1200<0
  24  0004              ;# 24 "E:\Project\17.HT66F4560_EVM_V1.0\CODE\HT66F4560_TuYa_FishTank_V1.0\souce\ds18b20.c" 1
  24  0004              	ERRMESSAGE 'the value 1200 of the argument exceeds the mininum 0'
  24  0004              	ENDIF
  24  0004              ;# 24 "E:\Project\17.HT66F4560_EVM_V1.0\CODE\HT66F4560_TuYa_FishTank_V1.0\souce\ds18b20.c" 1
  24  0004              	IF 1200==0
  24  0004              ;# 24 "E:\Project\17.HT66F4560_EVM_V1.0\CODE\HT66F4560_TuYa_FishTank_V1.0\souce\ds18b20.c" 1
  24  0004              	JMP $
  24  0004              	ENDIF
  24  0004              ;# 24 "E:\Project\17.HT66F4560_EVM_V1.0\CODE\HT66F4560_TuYa_FishTank_V1.0\souce\ds18b20.c" 1
  24  0004              	IF (1200>=1) AND (1200<( 4 + __PBP__ * 2))
  24  0004              ;# 24 "E:\Project\17.HT66F4560_EVM_V1.0\CODE\HT66F4560_TuYa_FishTank_V1.0\souce\ds18b20.c" 1
  24  0004              	NOP
  24  0004              	ENDIF
  24  0004              ;# 24 "E:\Project\17.HT66F4560_EVM_V1.0\CODE\HT66F4560_TuYa_FishTank_V1.0\souce\ds18b20.c" 1
  24  0004              	IF (1200>=2) AND (1200<( 4 + __PBP__ * 2))
  24  0004              ;# 24 "E:\Project\17.HT66F4560_EVM_V1.0\CODE\HT66F4560_TuYa_FishTank_V1.0\souce\ds18b20.c" 1
  24  0004              	NOP
  24  0004              	ENDIF
  24  0004              ;# 24 "E:\Project\17.HT66F4560_EVM_V1.0\CODE\HT66F4560_TuYa_FishTank_V1.0\souce\ds18b20.c" 1
  24  0004              	IF (1200>=3) AND (1200<( 4 + __PBP__ * 2))
  24  0004              ;# 24 "E:\Project\17.HT66F4560_EVM_V1.0\CODE\HT66F4560_TuYa_FishTank_V1.0\souce\ds18b20.c" 1
  24  0004              	NOP
  24  0004              	ENDIF
  24  0004              ;# 24 "E:\Project\17.HT66F4560_EVM_V1.0\CODE\HT66F4560_TuYa_FishTank_V1.0\souce\ds18b20.c" 1
  24  0004              	IF (1200>=4) AND (1200<( 4 + __PBP__ * 2)) AND ( __PBP__ > 0 )
  24  0004              ;# 24 "E:\Project\17.HT66F4560_EVM_V1.0\CODE\HT66F4560_TuYa_FishTank_V1.0\souce\ds18b20.c" 1
  24  0004              	NOP
  24  0004              	ENDIF
  24  0004              ;# 24 "E:\Project\17.HT66F4560_EVM_V1.0\CODE\HT66F4560_TuYa_FishTank_V1.0\souce\ds18b20.c" 1
  24  0004              	IF (1200>=5) AND (1200<( 4 + __PBP__ * 2)) AND ( __PBP__ > 0 )
  24  0004              ;# 24 "E:\Project\17.HT66F4560_EVM_V1.0\CODE\HT66F4560_TuYa_FishTank_V1.0\souce\ds18b20.c" 1
"File: ds18b20.c     Assembler  Version HGASM0202      Page 3

  24  0004              	NOP
  24  0004              	ENDIF
  24  0004              ;# 24 "E:\Project\17.HT66F4560_EVM_V1.0\CODE\HT66F4560_TuYa_FishTank_V1.0\souce\ds18b20.c" 1
  24  0004              	IF (1200>=6) AND (1200<( 4 + __PBP__ * 2))  AND ( __PBP__ > 1 )
  24  0004              ;# 24 "E:\Project\17.HT66F4560_EVM_V1.0\CODE\HT66F4560_TuYa_FishTank_V1.0\souce\ds18b20.c" 1
  24  0004              	NOP
  24  0004              	ENDIF
  24  0004              ;# 24 "E:\Project\17.HT66F4560_EVM_V1.0\CODE\HT66F4560_TuYa_FishTank_V1.0\souce\ds18b20.c" 1
  24  0004              	IF (1200>=7) AND (1200<( 4 + __PBP__ * 2))  AND ( __PBP__ > 1 )
  24  0004              ;# 24 "E:\Project\17.HT66F4560_EVM_V1.0\CODE\HT66F4560_TuYa_FishTank_V1.0\souce\ds18b20.c" 1
  24  0004              	NOP
  24  0004              	ENDIF
  24  0004              ;# 24 "E:\Project\17.HT66F4560_EVM_V1.0\CODE\HT66F4560_TuYa_FishTank_V1.0\souce\ds18b20.c" 1
  24  0004              	IF (1200>=8) AND (1200<( 4 + __PBP__ * 2))  AND ( __PBP__ > 2 )
  24  0004              ;# 24 "E:\Project\17.HT66F4560_EVM_V1.0\CODE\HT66F4560_TuYa_FishTank_V1.0\souce\ds18b20.c" 1
  24  0004              	NOP
  24  0004              	ENDIF
  24  0004              ;# 24 "E:\Project\17.HT66F4560_EVM_V1.0\CODE\HT66F4560_TuYa_FishTank_V1.0\souce\ds18b20.c" 1
  24  0004              	IF (1200==9)  AND ( __PBP__ > 2 )
  24  0004              ;# 24 "E:\Project\17.HT66F4560_EVM_V1.0\CODE\HT66F4560_TuYa_FishTank_V1.0\souce\ds18b20.c" 1
  24  0004              	NOP
  24  0004              	ENDIF
  24  0004              ;# 24 "E:\Project\17.HT66F4560_EVM_V1.0\CODE\HT66F4560_TuYa_FishTank_V1.0\souce\ds18b20.c" 1
  24  0004              	IF (1200< ( 8 + __PBP__ * 2)) AND (1200>( 3 + __PBP__ * 2))
  24  0004              ;# 24 "E:\Project\17.HT66F4560_EVM_V1.0\CODE\HT66F4560_TuYa_FishTank_V1.0\souce\ds18b20.c" 1
  24  0004              	fcall __DELAY3 + ( 7 + __PBP__ * 2) -1200
  24  0004              	ENDIF
  24  0004              ;# 24 "E:\Project\17.HT66F4560_EVM_V1.0\CODE\HT66F4560_TuYa_FishTank_V1.0\souce\ds18b20.c" 1
  24  0004              	IF (1200< ( 0404h + __PBP__ * 2)) AND (1200>( 7 + __PBP__ * 2))
  24  0004              ;# 24 "E:\Project\17.HT66F4560_EVM_V1.0\CODE\HT66F4560_TuYa_FishTank_V1.0\souce\ds18b20.c" 1
  24  0004              	MOV A,(1200-( 4 + __PBP__ * 2))/4
  24  0004              ;# 24 "E:\Project\17.HT66F4560_EVM_V1.0\CODE\HT66F4560_TuYa_FishTank_V1.0\souce\ds18b20.c" 1
  24  0004              	fcall __DELAYX3 + 3 -((1200-( 4 + __PBP__ * 2)) MOD 4) 
  24  0004              	ENDIF
  24  0004              ;# 24 "E:\Project\17.HT66F4560_EVM_V1.0\CODE\HT66F4560_TuYa_FishTank_V1.0\souce\ds18b20.c" 1
  24  0004              	IF (1200< ( 040bh + __PBP__ * 2)) AND (1200> ( 0403h + __PBP__ * 2))
  24  0004              ;# 24 "E:\Project\17.HT66F4560_EVM_V1.0\CODE\HT66F4560_TuYa_FishTank_V1.0\souce\ds18b20.c" 1
  24  0004              	MOV A,0 
  24  0004              ;# 24 "E:\Project\17.HT66F4560_EVM_V1.0\CODE\HT66F4560_TuYa_FishTank_V1.0\souce\ds18b20.c" 1
  24  0004              	fcall __DELAYX6 + ( 040ah + __PBP__ * 2) -1200
  24  0004              	ENDIF
  24  0004              ;# 24 "E:\Project\17.HT66F4560_EVM_V1.0\CODE\HT66F4560_TuYa_FishTank_V1.0\souce\ds18b20.c" 1
  24  0004              	IF (1200 >= ( 040bh + __PBP__ * 2)) AND ((((1200-( 9 + __PBP__ * 2))%0402h)/4+1)>256)
  24  0004              ;# 24 "E:\Project\17.HT66F4560_EVM_V1.0\CODE\HT66F4560_TuYa_FishTank_V1.0\souce\ds18b20.c" 1
  24  0004              	MOV A,(1200-( 9 + __PBP__ * 2))/0402h
  24  0004              ;# 24 "E:\Project\17.HT66F4560_EVM_V1.0\CODE\HT66F4560_TuYa_FishTank_V1.0\souce\ds18b20.c" 1
  24  0004              	MOV _builtin_holtek_delay_2,A
  24  0004              ;# 24 "E:\Project\17.HT66F4560_EVM_V1.0\CODE\HT66F4560_TuYa_FishTank_V1.0\souce\ds18b20.c" 1
  24  0004              	MOV A,0
  24  0004              ;# 24 "E:\Project\17.HT66F4560_EVM_V1.0\CODE\HT66F4560_TuYa_FishTank_V1.0\souce\ds18b20.c" 1
  24  0004              	fcall __DELAYY5 +5- (((1200-( 9 + __PBP__ * 2))%0402h)%6) 
  24  0004              	ENDIF
  24  0004              ;# 24 "E:\Project\17.HT66F4560_EVM_V1.0\CODE\HT66F4560_TuYa_FishTank_V1.0\souce\ds18b20.c" 1
  24  0004              	IF (1200 >= ( 040bh + __PBP__ * 2)) AND ((((1200-( 9 + __PBP__ * 2))%0402h)/4+1)<=256)
  24  0004              ;# 24 "E:\Project\17.HT66F4560_EVM_V1.0\CODE\HT66F4560_TuYa_FishTank_V1.0\souce\ds18b20.c" 1
  24  0004  0F01        	MOV A,(1200-( 9 + __PBP__ * 2))/0402h
  24  0005              ;# 24 "E:\Project\17.HT66F4560_EVM_V1.0\CODE\HT66F4560_TuYa_FishTank_V1.0\souce\ds18b20.c" 1
  24  0005  0080     E  	MOV _builtin_holtek_delay_2,A
  24  0006              ;# 24 "E:\Project\17.HT66F4560_EVM_V1.0\CODE\HT66F4560_TuYa_FishTank_V1.0\souce\ds18b20.c" 1
  24  0006  0F29        	MOV A,((1200-( 9 + __PBP__ * 2))%0402h)/4+1
"File: ds18b20.c     Assembler  Version HGASM0202      Page 4

  24  0007              ;# 24 "E:\Project\17.HT66F4560_EVM_V1.0\CODE\HT66F4560_TuYa_FishTank_V1.0\souce\ds18b20.c" 1
  24  0007              	fcall __DELAYY3 +3-(((1200-( 9 + __PBP__ * 2))%0402h)%4) 
  24  000E              	ENDIF
  25  000E              #line 25 "E:\Project\17.HT66F4560_EVM_V1.0\CODE\HT66F4560_TuYa_FishTank_V1.0\souce\ds18b20.c"
  25  000E  B268 0001   	lset [360].4
  26  0010              #line 26 "E:\Project\17.HT66F4560_EVM_V1.0\CODE\HT66F4560_TuYa_FishTank_V1.0\souce\ds18b20.c"
  26  0010              ;# 26 "E:\Project\17.HT66F4560_EVM_V1.0\CODE\HT66F4560_TuYa_FishTank_V1.0\souce\ds18b20.c" 1
  26  0010              	IF 30>263690
  26  0010              ;# 26 "E:\Project\17.HT66F4560_EVM_V1.0\CODE\HT66F4560_TuYa_FishTank_V1.0\souce\ds18b20.c" 1
  26  0010              	ERRMESSAGE 'the value 30of the argument exceeds the maxinum 263690'
  26  0010              	ENDIF
  26  0010              ;# 26 "E:\Project\17.HT66F4560_EVM_V1.0\CODE\HT66F4560_TuYa_FishTank_V1.0\souce\ds18b20.c" 1
  26  0010              	IF 30<0
  26  0010              ;# 26 "E:\Project\17.HT66F4560_EVM_V1.0\CODE\HT66F4560_TuYa_FishTank_V1.0\souce\ds18b20.c" 1
  26  0010              	ERRMESSAGE 'the value 30 of the argument exceeds the mininum 0'
  26  0010              	ENDIF
  26  0010              ;# 26 "E:\Project\17.HT66F4560_EVM_V1.0\CODE\HT66F4560_TuYa_FishTank_V1.0\souce\ds18b20.c" 1
  26  0010              	IF 30==0
  26  0010              ;# 26 "E:\Project\17.HT66F4560_EVM_V1.0\CODE\HT66F4560_TuYa_FishTank_V1.0\souce\ds18b20.c" 1
  26  0010              	JMP $
  26  0010              	ENDIF
  26  0010              ;# 26 "E:\Project\17.HT66F4560_EVM_V1.0\CODE\HT66F4560_TuYa_FishTank_V1.0\souce\ds18b20.c" 1
  26  0010              	IF (30>=1) AND (30<( 4 + __PBP__ * 2))
  26  0010              ;# 26 "E:\Project\17.HT66F4560_EVM_V1.0\CODE\HT66F4560_TuYa_FishTank_V1.0\souce\ds18b20.c" 1
  26  0010              	NOP
  26  0010              	ENDIF
  26  0010              ;# 26 "E:\Project\17.HT66F4560_EVM_V1.0\CODE\HT66F4560_TuYa_FishTank_V1.0\souce\ds18b20.c" 1
  26  0010              	IF (30>=2) AND (30<( 4 + __PBP__ * 2))
  26  0010              ;# 26 "E:\Project\17.HT66F4560_EVM_V1.0\CODE\HT66F4560_TuYa_FishTank_V1.0\souce\ds18b20.c" 1
  26  0010              	NOP
  26  0010              	ENDIF
  26  0010              ;# 26 "E:\Project\17.HT66F4560_EVM_V1.0\CODE\HT66F4560_TuYa_FishTank_V1.0\souce\ds18b20.c" 1
  26  0010              	IF (30>=3) AND (30<( 4 + __PBP__ * 2))
  26  0010              ;# 26 "E:\Project\17.HT66F4560_EVM_V1.0\CODE\HT66F4560_TuYa_FishTank_V1.0\souce\ds18b20.c" 1
  26  0010              	NOP
  26  0010              	ENDIF
  26  0010              ;# 26 "E:\Project\17.HT66F4560_EVM_V1.0\CODE\HT66F4560_TuYa_FishTank_V1.0\souce\ds18b20.c" 1
  26  0010              	IF (30>=4) AND (30<( 4 + __PBP__ * 2)) AND ( __PBP__ > 0 )
  26  0010              ;# 26 "E:\Project\17.HT66F4560_EVM_V1.0\CODE\HT66F4560_TuYa_FishTank_V1.0\souce\ds18b20.c" 1
  26  0010              	NOP
  26  0010              	ENDIF
  26  0010              ;# 26 "E:\Project\17.HT66F4560_EVM_V1.0\CODE\HT66F4560_TuYa_FishTank_V1.0\souce\ds18b20.c" 1
  26  0010              	IF (30>=5) AND (30<( 4 + __PBP__ * 2)) AND ( __PBP__ > 0 )
  26  0010              ;# 26 "E:\Project\17.HT66F4560_EVM_V1.0\CODE\HT66F4560_TuYa_FishTank_V1.0\souce\ds18b20.c" 1
  26  0010              	NOP
  26  0010              	ENDIF
  26  0010              ;# 26 "E:\Project\17.HT66F4560_EVM_V1.0\CODE\HT66F4560_TuYa_FishTank_V1.0\souce\ds18b20.c" 1
  26  0010              	IF (30>=6) AND (30<( 4 + __PBP__ * 2))  AND ( __PBP__ > 1 )
  26  0010              ;# 26 "E:\Project\17.HT66F4560_EVM_V1.0\CODE\HT66F4560_TuYa_FishTank_V1.0\souce\ds18b20.c" 1
  26  0010              	NOP
  26  0010              	ENDIF
  26  0010              ;# 26 "E:\Project\17.HT66F4560_EVM_V1.0\CODE\HT66F4560_TuYa_FishTank_V1.0\souce\ds18b20.c" 1
  26  0010              	IF (30>=7) AND (30<( 4 + __PBP__ * 2))  AND ( __PBP__ > 1 )
  26  0010              ;# 26 "E:\Project\17.HT66F4560_EVM_V1.0\CODE\HT66F4560_TuYa_FishTank_V1.0\souce\ds18b20.c" 1
  26  0010              	NOP
  26  0010              	ENDIF
  26  0010              ;# 26 "E:\Project\17.HT66F4560_EVM_V1.0\CODE\HT66F4560_TuYa_FishTank_V1.0\souce\ds18b20.c" 1
  26  0010              	IF (30>=8) AND (30<( 4 + __PBP__ * 2))  AND ( __PBP__ > 2 )
  26  0010              ;# 26 "E:\Project\17.HT66F4560_EVM_V1.0\CODE\HT66F4560_TuYa_FishTank_V1.0\souce\ds18b20.c" 1
  26  0010              	NOP
"File: ds18b20.c     Assembler  Version HGASM0202      Page 5

  26  0010              	ENDIF
  26  0010              ;# 26 "E:\Project\17.HT66F4560_EVM_V1.0\CODE\HT66F4560_TuYa_FishTank_V1.0\souce\ds18b20.c" 1
  26  0010              	IF (30==9)  AND ( __PBP__ > 2 )
  26  0010              ;# 26 "E:\Project\17.HT66F4560_EVM_V1.0\CODE\HT66F4560_TuYa_FishTank_V1.0\souce\ds18b20.c" 1
  26  0010              	NOP
  26  0010              	ENDIF
  26  0010              ;# 26 "E:\Project\17.HT66F4560_EVM_V1.0\CODE\HT66F4560_TuYa_FishTank_V1.0\souce\ds18b20.c" 1
  26  0010              	IF (30< ( 8 + __PBP__ * 2)) AND (30>( 3 + __PBP__ * 2))
  26  0010              ;# 26 "E:\Project\17.HT66F4560_EVM_V1.0\CODE\HT66F4560_TuYa_FishTank_V1.0\souce\ds18b20.c" 1
  26  0010              	fcall __DELAY3 + ( 7 + __PBP__ * 2) -30
  26  0010              	ENDIF
  26  0010              ;# 26 "E:\Project\17.HT66F4560_EVM_V1.0\CODE\HT66F4560_TuYa_FishTank_V1.0\souce\ds18b20.c" 1
  26  0010              	IF (30< ( 0404h + __PBP__ * 2)) AND (30>( 7 + __PBP__ * 2))
  26  0010              ;# 26 "E:\Project\17.HT66F4560_EVM_V1.0\CODE\HT66F4560_TuYa_FishTank_V1.0\souce\ds18b20.c" 1
  26  0010  0F06        	MOV A,(30-( 4 + __PBP__ * 2))/4
  26  0011              ;# 26 "E:\Project\17.HT66F4560_EVM_V1.0\CODE\HT66F4560_TuYa_FishTank_V1.0\souce\ds18b20.c" 1
  26  0011              	fcall __DELAYX3 + 3 -((30-( 4 + __PBP__ * 2)) MOD 4) 
  26  0018              	ENDIF
  26  0018              ;# 26 "E:\Project\17.HT66F4560_EVM_V1.0\CODE\HT66F4560_TuYa_FishTank_V1.0\souce\ds18b20.c" 1
  26  0018              	IF (30< ( 040bh + __PBP__ * 2)) AND (30> ( 0403h + __PBP__ * 2))
  26  0018              ;# 26 "E:\Project\17.HT66F4560_EVM_V1.0\CODE\HT66F4560_TuYa_FishTank_V1.0\souce\ds18b20.c" 1
  26  0018              	MOV A,0 
  26  0018              ;# 26 "E:\Project\17.HT66F4560_EVM_V1.0\CODE\HT66F4560_TuYa_FishTank_V1.0\souce\ds18b20.c" 1
  26  0018              	fcall __DELAYX6 + ( 040ah + __PBP__ * 2) -30
  26  0018              	ENDIF
  26  0018              ;# 26 "E:\Project\17.HT66F4560_EVM_V1.0\CODE\HT66F4560_TuYa_FishTank_V1.0\souce\ds18b20.c" 1
  26  0018              	IF (30 >= ( 040bh + __PBP__ * 2)) AND ((((30-( 9 + __PBP__ * 2))%0402h)/4+1)>256)
  26  0018              ;# 26 "E:\Project\17.HT66F4560_EVM_V1.0\CODE\HT66F4560_TuYa_FishTank_V1.0\souce\ds18b20.c" 1
  26  0018              	MOV A,(30-( 9 + __PBP__ * 2))/0402h
  26  0018              ;# 26 "E:\Project\17.HT66F4560_EVM_V1.0\CODE\HT66F4560_TuYa_FishTank_V1.0\souce\ds18b20.c" 1
  26  0018              	MOV _builtin_holtek_delay_2,A
  26  0018              ;# 26 "E:\Project\17.HT66F4560_EVM_V1.0\CODE\HT66F4560_TuYa_FishTank_V1.0\souce\ds18b20.c" 1
  26  0018              	MOV A,0
  26  0018              ;# 26 "E:\Project\17.HT66F4560_EVM_V1.0\CODE\HT66F4560_TuYa_FishTank_V1.0\souce\ds18b20.c" 1
  26  0018              	fcall __DELAYY5 +5- (((30-( 9 + __PBP__ * 2))%0402h)%6) 
  26  0018              	ENDIF
  26  0018              ;# 26 "E:\Project\17.HT66F4560_EVM_V1.0\CODE\HT66F4560_TuYa_FishTank_V1.0\souce\ds18b20.c" 1
  26  0018              	IF (30 >= ( 040bh + __PBP__ * 2)) AND ((((30-( 9 + __PBP__ * 2))%0402h)/4+1)<=256)
  26  0018              ;# 26 "E:\Project\17.HT66F4560_EVM_V1.0\CODE\HT66F4560_TuYa_FishTank_V1.0\souce\ds18b20.c" 1
  26  0018              	MOV A,(30-( 9 + __PBP__ * 2))/0402h
  26  0018              ;# 26 "E:\Project\17.HT66F4560_EVM_V1.0\CODE\HT66F4560_TuYa_FishTank_V1.0\souce\ds18b20.c" 1
  26  0018              	MOV _builtin_holtek_delay_2,A
  26  0018              ;# 26 "E:\Project\17.HT66F4560_EVM_V1.0\CODE\HT66F4560_TuYa_FishTank_V1.0\souce\ds18b20.c" 1
  26  0018              	MOV A,((30-( 9 + __PBP__ * 2))%0402h)/4+1
  26  0018              ;# 26 "E:\Project\17.HT66F4560_EVM_V1.0\CODE\HT66F4560_TuYa_FishTank_V1.0\souce\ds18b20.c" 1
  26  0018              	fcall __DELAYY3 +3-(((30-( 9 + __PBP__ * 2))%0402h)%4) 
  26  0018              	ENDIF
  26  0018  0003        	ret
  26  0019              _DS18B20_Rst endp
  26  0019              #line 26 "E:\Project\17.HT66F4560_EVM_V1.0\CODE\HT66F4560_TuYa_FishTank_V1.0\souce\ds18b20.c"
  26  0019              #pragma debug scope 1 1
  26  0019              public _DS18B20_Check
  26  0019              #pragma debug scope 3 1
  33  0019              #line 33 "E:\Project\17.HT66F4560_EVM_V1.0\CODE\HT66F4560_TuYa_FishTank_V1.0\souce\ds18b20.c"
  33  0000              _DS18B20_Check .section 'code'
  33  0000              _DS18B20_Check proc
  35  0000              #line 35 "E:\Project\17.HT66F4560_EVM_V1.0\CODE\HT66F4560_TuYa_FishTank_V1.0\souce\ds18b20.c"
  35  0000  B269 0001   	lset [361].4
  34  0002              #line 34 "E:\Project\17.HT66F4560_EVM_V1.0\CODE\HT66F4560_TuYa_FishTank_V1.0\souce\ds18b20.c"
  34  0002  1F00     E  	clr ra
"File: ds18b20.c     Assembler  Version HGASM0202      Page 6

  34  0003              _L3:
  37  0003              #line 37 "E:\Project\17.HT66F4560_EVM_V1.0\CODE\HT66F4560_TuYa_FishTank_V1.0\souce\ds18b20.c"
  37  0003  BA68 0001   	lsnz [360].4
  37  0005  2800     R  	jmp _L4
  37  0006  0700     E  	mov a,ra
  37  0007  0AC8        	sub a,200
  37  0008  3D0A        	sz z
  37  0009  2800     R  	jmp _L11
  39  000A              #line 39 "E:\Project\17.HT66F4560_EVM_V1.0\CODE\HT66F4560_TuYa_FishTank_V1.0\souce\ds18b20.c"
  39  000A  1480     E  	inc ra
  40  000B              #line 40 "E:\Project\17.HT66F4560_EVM_V1.0\CODE\HT66F4560_TuYa_FishTank_V1.0\souce\ds18b20.c"
  40  000B              ;# 40 "E:\Project\17.HT66F4560_EVM_V1.0\CODE\HT66F4560_TuYa_FishTank_V1.0\souce\ds18b20.c" 1
  40  000B              	IF 1>263690
  40  000B              ;# 40 "E:\Project\17.HT66F4560_EVM_V1.0\CODE\HT66F4560_TuYa_FishTank_V1.0\souce\ds18b20.c" 1
  40  000B              	ERRMESSAGE 'the value 1of the argument exceeds the maxinum 263690'
  40  000B              	ENDIF
  40  000B              ;# 40 "E:\Project\17.HT66F4560_EVM_V1.0\CODE\HT66F4560_TuYa_FishTank_V1.0\souce\ds18b20.c" 1
  40  000B              	IF 1<0
  40  000B              ;# 40 "E:\Project\17.HT66F4560_EVM_V1.0\CODE\HT66F4560_TuYa_FishTank_V1.0\souce\ds18b20.c" 1
  40  000B              	ERRMESSAGE 'the value 1 of the argument exceeds the mininum 0'
  40  000B              	ENDIF
  40  000B              ;# 40 "E:\Project\17.HT66F4560_EVM_V1.0\CODE\HT66F4560_TuYa_FishTank_V1.0\souce\ds18b20.c" 1
  40  000B              	IF 1==0
  40  000B              ;# 40 "E:\Project\17.HT66F4560_EVM_V1.0\CODE\HT66F4560_TuYa_FishTank_V1.0\souce\ds18b20.c" 1
  40  000B              	JMP $
  40  000B              	ENDIF
  40  000B              ;# 40 "E:\Project\17.HT66F4560_EVM_V1.0\CODE\HT66F4560_TuYa_FishTank_V1.0\souce\ds18b20.c" 1
  40  000B              	IF (1>=1) AND (1<( 4 + __PBP__ * 2))
  40  000B              ;# 40 "E:\Project\17.HT66F4560_EVM_V1.0\CODE\HT66F4560_TuYa_FishTank_V1.0\souce\ds18b20.c" 1
  40  000B  0000        	NOP
  40  000C              	ENDIF
  40  000C              ;# 40 "E:\Project\17.HT66F4560_EVM_V1.0\CODE\HT66F4560_TuYa_FishTank_V1.0\souce\ds18b20.c" 1
  40  000C              	IF (1>=2) AND (1<( 4 + __PBP__ * 2))
  40  000C              ;# 40 "E:\Project\17.HT66F4560_EVM_V1.0\CODE\HT66F4560_TuYa_FishTank_V1.0\souce\ds18b20.c" 1
  40  000C              	NOP
  40  000C              	ENDIF
  40  000C              ;# 40 "E:\Project\17.HT66F4560_EVM_V1.0\CODE\HT66F4560_TuYa_FishTank_V1.0\souce\ds18b20.c" 1
  40  000C              	IF (1>=3) AND (1<( 4 + __PBP__ * 2))
  40  000C              ;# 40 "E:\Project\17.HT66F4560_EVM_V1.0\CODE\HT66F4560_TuYa_FishTank_V1.0\souce\ds18b20.c" 1
  40  000C              	NOP
  40  000C              	ENDIF
  40  000C              ;# 40 "E:\Project\17.HT66F4560_EVM_V1.0\CODE\HT66F4560_TuYa_FishTank_V1.0\souce\ds18b20.c" 1
  40  000C              	IF (1>=4) AND (1<( 4 + __PBP__ * 2)) AND ( __PBP__ > 0 )
  40  000C              ;# 40 "E:\Project\17.HT66F4560_EVM_V1.0\CODE\HT66F4560_TuYa_FishTank_V1.0\souce\ds18b20.c" 1
  40  000C              	NOP
  40  000C              	ENDIF
  40  000C              ;# 40 "E:\Project\17.HT66F4560_EVM_V1.0\CODE\HT66F4560_TuYa_FishTank_V1.0\souce\ds18b20.c" 1
  40  000C              	IF (1>=5) AND (1<( 4 + __PBP__ * 2)) AND ( __PBP__ > 0 )
  40  000C              ;# 40 "E:\Project\17.HT66F4560_EVM_V1.0\CODE\HT66F4560_TuYa_FishTank_V1.0\souce\ds18b20.c" 1
  40  000C              	NOP
  40  000C              	ENDIF
  40  000C              ;# 40 "E:\Project\17.HT66F4560_EVM_V1.0\CODE\HT66F4560_TuYa_FishTank_V1.0\souce\ds18b20.c" 1
  40  000C              	IF (1>=6) AND (1<( 4 + __PBP__ * 2))  AND ( __PBP__ > 1 )
  40  000C              ;# 40 "E:\Project\17.HT66F4560_EVM_V1.0\CODE\HT66F4560_TuYa_FishTank_V1.0\souce\ds18b20.c" 1
  40  000C              	NOP
  40  000C              	ENDIF
  40  000C              ;# 40 "E:\Project\17.HT66F4560_EVM_V1.0\CODE\HT66F4560_TuYa_FishTank_V1.0\souce\ds18b20.c" 1
  40  000C              	IF (1>=7) AND (1<( 4 + __PBP__ * 2))  AND ( __PBP__ > 1 )
  40  000C              ;# 40 "E:\Project\17.HT66F4560_EVM_V1.0\CODE\HT66F4560_TuYa_FishTank_V1.0\souce\ds18b20.c" 1
  40  000C              	NOP
"File: ds18b20.c     Assembler  Version HGASM0202      Page 7

  40  000C              	ENDIF
  40  000C              ;# 40 "E:\Project\17.HT66F4560_EVM_V1.0\CODE\HT66F4560_TuYa_FishTank_V1.0\souce\ds18b20.c" 1
  40  000C              	IF (1>=8) AND (1<( 4 + __PBP__ * 2))  AND ( __PBP__ > 2 )
  40  000C              ;# 40 "E:\Project\17.HT66F4560_EVM_V1.0\CODE\HT66F4560_TuYa_FishTank_V1.0\souce\ds18b20.c" 1
  40  000C              	NOP
  40  000C              	ENDIF
  40  000C              ;# 40 "E:\Project\17.HT66F4560_EVM_V1.0\CODE\HT66F4560_TuYa_FishTank_V1.0\souce\ds18b20.c" 1
  40  000C              	IF (1==9)  AND ( __PBP__ > 2 )
  40  000C              ;# 40 "E:\Project\17.HT66F4560_EVM_V1.0\CODE\HT66F4560_TuYa_FishTank_V1.0\souce\ds18b20.c" 1
  40  000C              	NOP
  40  000C              	ENDIF
  40  000C              ;# 40 "E:\Project\17.HT66F4560_EVM_V1.0\CODE\HT66F4560_TuYa_FishTank_V1.0\souce\ds18b20.c" 1
  40  000C              	IF (1< ( 8 + __PBP__ * 2)) AND (1>( 3 + __PBP__ * 2))
  40  000C              ;# 40 "E:\Project\17.HT66F4560_EVM_V1.0\CODE\HT66F4560_TuYa_FishTank_V1.0\souce\ds18b20.c" 1
  40  000C              	fcall __DELAY3 + ( 7 + __PBP__ * 2) -1
  40  000C              	ENDIF
  40  000C              ;# 40 "E:\Project\17.HT66F4560_EVM_V1.0\CODE\HT66F4560_TuYa_FishTank_V1.0\souce\ds18b20.c" 1
  40  000C              	IF (1< ( 0404h + __PBP__ * 2)) AND (1>( 7 + __PBP__ * 2))
  40  000C              ;# 40 "E:\Project\17.HT66F4560_EVM_V1.0\CODE\HT66F4560_TuYa_FishTank_V1.0\souce\ds18b20.c" 1
  40  000C              	MOV A,(1-( 4 + __PBP__ * 2))/4
  40  000C              ;# 40 "E:\Project\17.HT66F4560_EVM_V1.0\CODE\HT66F4560_TuYa_FishTank_V1.0\souce\ds18b20.c" 1
  40  000C              	fcall __DELAYX3 + 3 -((1-( 4 + __PBP__ * 2)) MOD 4) 
  40  000C              	ENDIF
  40  000C              ;# 40 "E:\Project\17.HT66F4560_EVM_V1.0\CODE\HT66F4560_TuYa_FishTank_V1.0\souce\ds18b20.c" 1
  40  000C              	IF (1< ( 040bh + __PBP__ * 2)) AND (1> ( 0403h + __PBP__ * 2))
  40  000C              ;# 40 "E:\Project\17.HT66F4560_EVM_V1.0\CODE\HT66F4560_TuYa_FishTank_V1.0\souce\ds18b20.c" 1
  40  000C              	MOV A,0 
  40  000C              ;# 40 "E:\Project\17.HT66F4560_EVM_V1.0\CODE\HT66F4560_TuYa_FishTank_V1.0\souce\ds18b20.c" 1
  40  000C              	fcall __DELAYX6 + ( 040ah + __PBP__ * 2) -1
  40  000C              	ENDIF
  40  000C              ;# 40 "E:\Project\17.HT66F4560_EVM_V1.0\CODE\HT66F4560_TuYa_FishTank_V1.0\souce\ds18b20.c" 1
  40  000C              	IF (1 >= ( 040bh + __PBP__ * 2)) AND ((((1-( 9 + __PBP__ * 2))%0402h)/4+1)>256)
  40  000C              ;# 40 "E:\Project\17.HT66F4560_EVM_V1.0\CODE\HT66F4560_TuYa_FishTank_V1.0\souce\ds18b20.c" 1
  40  000C              	MOV A,(1-( 9 + __PBP__ * 2))/0402h
  40  000C              ;# 40 "E:\Project\17.HT66F4560_EVM_V1.0\CODE\HT66F4560_TuYa_FishTank_V1.0\souce\ds18b20.c" 1
  40  000C              	MOV _builtin_holtek_delay_2,A
  40  000C              ;# 40 "E:\Project\17.HT66F4560_EVM_V1.0\CODE\HT66F4560_TuYa_FishTank_V1.0\souce\ds18b20.c" 1
  40  000C              	MOV A,0
  40  000C              ;# 40 "E:\Project\17.HT66F4560_EVM_V1.0\CODE\HT66F4560_TuYa_FishTank_V1.0\souce\ds18b20.c" 1
  40  000C              	fcall __DELAYY5 +5- (((1-( 9 + __PBP__ * 2))%0402h)%6) 
  40  000C              	ENDIF
  40  000C              ;# 40 "E:\Project\17.HT66F4560_EVM_V1.0\CODE\HT66F4560_TuYa_FishTank_V1.0\souce\ds18b20.c" 1
  40  000C              	IF (1 >= ( 040bh + __PBP__ * 2)) AND ((((1-( 9 + __PBP__ * 2))%0402h)/4+1)<=256)
  40  000C              ;# 40 "E:\Project\17.HT66F4560_EVM_V1.0\CODE\HT66F4560_TuYa_FishTank_V1.0\souce\ds18b20.c" 1
  40  000C              	MOV A,(1-( 9 + __PBP__ * 2))/0402h
  40  000C              ;# 40 "E:\Project\17.HT66F4560_EVM_V1.0\CODE\HT66F4560_TuYa_FishTank_V1.0\souce\ds18b20.c" 1
  40  000C              	MOV _builtin_holtek_delay_2,A
  40  000C              ;# 40 "E:\Project\17.HT66F4560_EVM_V1.0\CODE\HT66F4560_TuYa_FishTank_V1.0\souce\ds18b20.c" 1
  40  000C              	MOV A,((1-( 9 + __PBP__ * 2))%0402h)/4+1
  40  000C              ;# 40 "E:\Project\17.HT66F4560_EVM_V1.0\CODE\HT66F4560_TuYa_FishTank_V1.0\souce\ds18b20.c" 1
  40  000C              	fcall __DELAYY3 +3-(((1-( 9 + __PBP__ * 2))%0402h)%4) 
  40  000C              	ENDIF
  40  000C  2800     R  	jmp _L3
  40  000D              _L4:
  42  000D              #line 42 "E:\Project\17.HT66F4560_EVM_V1.0\CODE\HT66F4560_TuYa_FishTank_V1.0\souce\ds18b20.c"
  42  000D  0700     E  	mov a,ra
  42  000E  0AC8        	sub a,200
  42  000F  3D0A        	sz z
  42  0010  2800     R  	jmp _L11
  42  0011  1F00     E  	clr rb
"File: ds18b20.c     Assembler  Version HGASM0202      Page 8

  42  0012              _L7:
  44  0012              #line 44 "E:\Project\17.HT66F4560_EVM_V1.0\CODE\HT66F4560_TuYa_FishTank_V1.0\souce\ds18b20.c"
  44  0012  BE68 0001   	lsz [360].4
  44  0014  2800     R  	jmp _L8
  44  0015  0700     E  	mov a,rb
  44  0016  0AF0        	sub a,240
  44  0017  3D0A        	sz z
  44  0018  2800     R  	jmp _L11
  46  0019              #line 46 "E:\Project\17.HT66F4560_EVM_V1.0\CODE\HT66F4560_TuYa_FishTank_V1.0\souce\ds18b20.c"
  46  0019  1480     E  	inc rb
  46  001A  2800     R  	jmp _L7
  46  001B              _L8:
  49  001B              #line 49 "E:\Project\17.HT66F4560_EVM_V1.0\CODE\HT66F4560_TuYa_FishTank_V1.0\souce\ds18b20.c"
  49  001B  0F01        	mov a,1
  49  001C  0080     E  	mov ra,a
  49  001D  0700     E  	mov a,rb
  49  001E  0AF0        	sub a,240
  49  001F  3D0A        	sz z
  49  0020  2800     R  	jmp _L6
  49  0021  1F00     E  	clr ra
  49  0022  2800     R  	jmp _L6
  49  0023              _L11:
  42  0023              #line 42 "E:\Project\17.HT66F4560_EVM_V1.0\CODE\HT66F4560_TuYa_FishTank_V1.0\souce\ds18b20.c"
  42  0023  0F01        	mov a,1
  42  0024  0080     E  	mov ra,a
  42  0025              _L6:
  51  0025              #line 51 "E:\Project\17.HT66F4560_EVM_V1.0\CODE\HT66F4560_TuYa_FishTank_V1.0\souce\ds18b20.c"
  51  0025  0700     E  	mov a,ra
  51  0026  0003        	ret
  51  0027              _DS18B20_Check endp
  51  0027              #line 51 "E:\Project\17.HT66F4560_EVM_V1.0\CODE\HT66F4560_TuYa_FishTank_V1.0\souce\ds18b20.c"
  51  0027              #pragma debug scope 1 1
  51  0027              public _DS18B20_Read_Bit
  51  0027              #pragma debug scope 4 1
  55  0027              #line 55 "E:\Project\17.HT66F4560_EVM_V1.0\CODE\HT66F4560_TuYa_FishTank_V1.0\souce\ds18b20.c"
  55  0000              _DS18B20_Read_Bit .section 'code'
  55  0000              _DS18B20_Read_Bit proc
  57  0000              #line 57 "E:\Project\17.HT66F4560_EVM_V1.0\CODE\HT66F4560_TuYa_FishTank_V1.0\souce\ds18b20.c"
  57  0000  B669 0001   	lclr [361].4
  58  0002              #line 58 "E:\Project\17.HT66F4560_EVM_V1.0\CODE\HT66F4560_TuYa_FishTank_V1.0\souce\ds18b20.c"
  58  0002  B668 0001   	lclr [360].4
  59  0004              #line 59 "E:\Project\17.HT66F4560_EVM_V1.0\CODE\HT66F4560_TuYa_FishTank_V1.0\souce\ds18b20.c"
  59  0004              ;# 59 "E:\Project\17.HT66F4560_EVM_V1.0\CODE\HT66F4560_TuYa_FishTank_V1.0\souce\ds18b20.c" 1
  59  0004              	IF 6>263690
  59  0004              ;# 59 "E:\Project\17.HT66F4560_EVM_V1.0\CODE\HT66F4560_TuYa_FishTank_V1.0\souce\ds18b20.c" 1
  59  0004              	ERRMESSAGE 'the value 6of the argument exceeds the maxinum 263690'
  59  0004              	ENDIF
  59  0004              ;# 59 "E:\Project\17.HT66F4560_EVM_V1.0\CODE\HT66F4560_TuYa_FishTank_V1.0\souce\ds18b20.c" 1
  59  0004              	IF 6<0
  59  0004              ;# 59 "E:\Project\17.HT66F4560_EVM_V1.0\CODE\HT66F4560_TuYa_FishTank_V1.0\souce\ds18b20.c" 1
  59  0004              	ERRMESSAGE 'the value 6 of the argument exceeds the mininum 0'
  59  0004              	ENDIF
  59  0004              ;# 59 "E:\Project\17.HT66F4560_EVM_V1.0\CODE\HT66F4560_TuYa_FishTank_V1.0\souce\ds18b20.c" 1
  59  0004              	IF 6==0
  59  0004              ;# 59 "E:\Project\17.HT66F4560_EVM_V1.0\CODE\HT66F4560_TuYa_FishTank_V1.0\souce\ds18b20.c" 1
  59  0004              	JMP $
  59  0004              	ENDIF
  59  0004              ;# 59 "E:\Project\17.HT66F4560_EVM_V1.0\CODE\HT66F4560_TuYa_FishTank_V1.0\souce\ds18b20.c" 1
  59  0004              	IF (6>=1) AND (6<( 4 + __PBP__ * 2))
  59  0004              ;# 59 "E:\Project\17.HT66F4560_EVM_V1.0\CODE\HT66F4560_TuYa_FishTank_V1.0\souce\ds18b20.c" 1
"File: ds18b20.c     Assembler  Version HGASM0202      Page 9

  59  0004              	NOP
  59  0004              	ENDIF
  59  0004              ;# 59 "E:\Project\17.HT66F4560_EVM_V1.0\CODE\HT66F4560_TuYa_FishTank_V1.0\souce\ds18b20.c" 1
  59  0004              	IF (6>=2) AND (6<( 4 + __PBP__ * 2))
  59  0004              ;# 59 "E:\Project\17.HT66F4560_EVM_V1.0\CODE\HT66F4560_TuYa_FishTank_V1.0\souce\ds18b20.c" 1
  59  0004              	NOP
  59  0004              	ENDIF
  59  0004              ;# 59 "E:\Project\17.HT66F4560_EVM_V1.0\CODE\HT66F4560_TuYa_FishTank_V1.0\souce\ds18b20.c" 1
  59  0004              	IF (6>=3) AND (6<( 4 + __PBP__ * 2))
  59  0004              ;# 59 "E:\Project\17.HT66F4560_EVM_V1.0\CODE\HT66F4560_TuYa_FishTank_V1.0\souce\ds18b20.c" 1
  59  0004              	NOP
  59  0004              	ENDIF
  59  0004              ;# 59 "E:\Project\17.HT66F4560_EVM_V1.0\CODE\HT66F4560_TuYa_FishTank_V1.0\souce\ds18b20.c" 1
  59  0004              	IF (6>=4) AND (6<( 4 + __PBP__ * 2)) AND ( __PBP__ > 0 )
  59  0004              ;# 59 "E:\Project\17.HT66F4560_EVM_V1.0\CODE\HT66F4560_TuYa_FishTank_V1.0\souce\ds18b20.c" 1
  59  0004              	NOP
  59  0004              	ENDIF
  59  0004              ;# 59 "E:\Project\17.HT66F4560_EVM_V1.0\CODE\HT66F4560_TuYa_FishTank_V1.0\souce\ds18b20.c" 1
  59  0004              	IF (6>=5) AND (6<( 4 + __PBP__ * 2)) AND ( __PBP__ > 0 )
  59  0004              ;# 59 "E:\Project\17.HT66F4560_EVM_V1.0\CODE\HT66F4560_TuYa_FishTank_V1.0\souce\ds18b20.c" 1
  59  0004              	NOP
  59  0004              	ENDIF
  59  0004              ;# 59 "E:\Project\17.HT66F4560_EVM_V1.0\CODE\HT66F4560_TuYa_FishTank_V1.0\souce\ds18b20.c" 1
  59  0004              	IF (6>=6) AND (6<( 4 + __PBP__ * 2))  AND ( __PBP__ > 1 )
  59  0004              ;# 59 "E:\Project\17.HT66F4560_EVM_V1.0\CODE\HT66F4560_TuYa_FishTank_V1.0\souce\ds18b20.c" 1
  59  0004              	NOP
  59  0004              	ENDIF
  59  0004              ;# 59 "E:\Project\17.HT66F4560_EVM_V1.0\CODE\HT66F4560_TuYa_FishTank_V1.0\souce\ds18b20.c" 1
  59  0004              	IF (6>=7) AND (6<( 4 + __PBP__ * 2))  AND ( __PBP__ > 1 )
  59  0004              ;# 59 "E:\Project\17.HT66F4560_EVM_V1.0\CODE\HT66F4560_TuYa_FishTank_V1.0\souce\ds18b20.c" 1
  59  0004              	NOP
  59  0004              	ENDIF
  59  0004              ;# 59 "E:\Project\17.HT66F4560_EVM_V1.0\CODE\HT66F4560_TuYa_FishTank_V1.0\souce\ds18b20.c" 1
  59  0004              	IF (6>=8) AND (6<( 4 + __PBP__ * 2))  AND ( __PBP__ > 2 )
  59  0004              ;# 59 "E:\Project\17.HT66F4560_EVM_V1.0\CODE\HT66F4560_TuYa_FishTank_V1.0\souce\ds18b20.c" 1
  59  0004              	NOP
  59  0004              	ENDIF
  59  0004              ;# 59 "E:\Project\17.HT66F4560_EVM_V1.0\CODE\HT66F4560_TuYa_FishTank_V1.0\souce\ds18b20.c" 1
  59  0004              	IF (6==9)  AND ( __PBP__ > 2 )
  59  0004              ;# 59 "E:\Project\17.HT66F4560_EVM_V1.0\CODE\HT66F4560_TuYa_FishTank_V1.0\souce\ds18b20.c" 1
  59  0004              	NOP
  59  0004              	ENDIF
  59  0004              ;# 59 "E:\Project\17.HT66F4560_EVM_V1.0\CODE\HT66F4560_TuYa_FishTank_V1.0\souce\ds18b20.c" 1
  59  0004              	IF (6< ( 8 + __PBP__ * 2)) AND (6>( 3 + __PBP__ * 2))
  59  0004              ;# 59 "E:\Project\17.HT66F4560_EVM_V1.0\CODE\HT66F4560_TuYa_FishTank_V1.0\souce\ds18b20.c" 1
  59  0004              	fcall __DELAY3 + ( 7 + __PBP__ * 2) -6
  59  000B              	ENDIF
  59  000B              ;# 59 "E:\Project\17.HT66F4560_EVM_V1.0\CODE\HT66F4560_TuYa_FishTank_V1.0\souce\ds18b20.c" 1
  59  000B              	IF (6< ( 0404h + __PBP__ * 2)) AND (6>( 7 + __PBP__ * 2))
  59  000B              ;# 59 "E:\Project\17.HT66F4560_EVM_V1.0\CODE\HT66F4560_TuYa_FishTank_V1.0\souce\ds18b20.c" 1
  59  000B              	MOV A,(6-( 4 + __PBP__ * 2))/4
  59  000B              ;# 59 "E:\Project\17.HT66F4560_EVM_V1.0\CODE\HT66F4560_TuYa_FishTank_V1.0\souce\ds18b20.c" 1
  59  000B              	fcall __DELAYX3 + 3 -((6-( 4 + __PBP__ * 2)) MOD 4) 
  59  000B              	ENDIF
  59  000B              ;# 59 "E:\Project\17.HT66F4560_EVM_V1.0\CODE\HT66F4560_TuYa_FishTank_V1.0\souce\ds18b20.c" 1
  59  000B              	IF (6< ( 040bh + __PBP__ * 2)) AND (6> ( 0403h + __PBP__ * 2))
  59  000B              ;# 59 "E:\Project\17.HT66F4560_EVM_V1.0\CODE\HT66F4560_TuYa_FishTank_V1.0\souce\ds18b20.c" 1
  59  000B              	MOV A,0 
  59  000B              ;# 59 "E:\Project\17.HT66F4560_EVM_V1.0\CODE\HT66F4560_TuYa_FishTank_V1.0\souce\ds18b20.c" 1
  59  000B              	fcall __DELAYX6 + ( 040ah + __PBP__ * 2) -6
"File: ds18b20.c     Assembler  Version HGASM0202      Page 10

  59  000B              	ENDIF
  59  000B              ;# 59 "E:\Project\17.HT66F4560_EVM_V1.0\CODE\HT66F4560_TuYa_FishTank_V1.0\souce\ds18b20.c" 1
  59  000B              	IF (6 >= ( 040bh + __PBP__ * 2)) AND ((((6-( 9 + __PBP__ * 2))%0402h)/4+1)>256)
  59  000B              ;# 59 "E:\Project\17.HT66F4560_EVM_V1.0\CODE\HT66F4560_TuYa_FishTank_V1.0\souce\ds18b20.c" 1
  59  000B              	MOV A,(6-( 9 + __PBP__ * 2))/0402h
  59  000B              ;# 59 "E:\Project\17.HT66F4560_EVM_V1.0\CODE\HT66F4560_TuYa_FishTank_V1.0\souce\ds18b20.c" 1
  59  000B              	MOV _builtin_holtek_delay_2,A
  59  000B              ;# 59 "E:\Project\17.HT66F4560_EVM_V1.0\CODE\HT66F4560_TuYa_FishTank_V1.0\souce\ds18b20.c" 1
  59  000B              	MOV A,0
  59  000B              ;# 59 "E:\Project\17.HT66F4560_EVM_V1.0\CODE\HT66F4560_TuYa_FishTank_V1.0\souce\ds18b20.c" 1
  59  000B              	fcall __DELAYY5 +5- (((6-( 9 + __PBP__ * 2))%0402h)%6) 
  59  000B              	ENDIF
  59  000B              ;# 59 "E:\Project\17.HT66F4560_EVM_V1.0\CODE\HT66F4560_TuYa_FishTank_V1.0\souce\ds18b20.c" 1
  59  000B              	IF (6 >= ( 040bh + __PBP__ * 2)) AND ((((6-( 9 + __PBP__ * 2))%0402h)/4+1)<=256)
  59  000B              ;# 59 "E:\Project\17.HT66F4560_EVM_V1.0\CODE\HT66F4560_TuYa_FishTank_V1.0\souce\ds18b20.c" 1
  59  000B              	MOV A,(6-( 9 + __PBP__ * 2))/0402h
  59  000B              ;# 59 "E:\Project\17.HT66F4560_EVM_V1.0\CODE\HT66F4560_TuYa_FishTank_V1.0\souce\ds18b20.c" 1
  59  000B              	MOV _builtin_holtek_delay_2,A
  59  000B              ;# 59 "E:\Project\17.HT66F4560_EVM_V1.0\CODE\HT66F4560_TuYa_FishTank_V1.0\souce\ds18b20.c" 1
  59  000B              	MOV A,((6-( 9 + __PBP__ * 2))%0402h)/4+1
  59  000B              ;# 59 "E:\Project\17.HT66F4560_EVM_V1.0\CODE\HT66F4560_TuYa_FishTank_V1.0\souce\ds18b20.c" 1
  59  000B              	fcall __DELAYY3 +3-(((6-( 9 + __PBP__ * 2))%0402h)%4) 
  59  000B              	ENDIF
  61  000B              #line 61 "E:\Project\17.HT66F4560_EVM_V1.0\CODE\HT66F4560_TuYa_FishTank_V1.0\souce\ds18b20.c"
  61  000B  B269 0001   	lset [361].4
  62  000D              #line 62 "E:\Project\17.HT66F4560_EVM_V1.0\CODE\HT66F4560_TuYa_FishTank_V1.0\souce\ds18b20.c"
  62  000D              ;# 62 "E:\Project\17.HT66F4560_EVM_V1.0\CODE\HT66F4560_TuYa_FishTank_V1.0\souce\ds18b20.c" 1
  62  000D              	IF 20>263690
  62  000D              ;# 62 "E:\Project\17.HT66F4560_EVM_V1.0\CODE\HT66F4560_TuYa_FishTank_V1.0\souce\ds18b20.c" 1
  62  000D              	ERRMESSAGE 'the value 20of the argument exceeds the maxinum 263690'
  62  000D              	ENDIF
  62  000D              ;# 62 "E:\Project\17.HT66F4560_EVM_V1.0\CODE\HT66F4560_TuYa_FishTank_V1.0\souce\ds18b20.c" 1
  62  000D              	IF 20<0
  62  000D              ;# 62 "E:\Project\17.HT66F4560_EVM_V1.0\CODE\HT66F4560_TuYa_FishTank_V1.0\souce\ds18b20.c" 1
  62  000D              	ERRMESSAGE 'the value 20 of the argument exceeds the mininum 0'
  62  000D              	ENDIF
  62  000D              ;# 62 "E:\Project\17.HT66F4560_EVM_V1.0\CODE\HT66F4560_TuYa_FishTank_V1.0\souce\ds18b20.c" 1
  62  000D              	IF 20==0
  62  000D              ;# 62 "E:\Project\17.HT66F4560_EVM_V1.0\CODE\HT66F4560_TuYa_FishTank_V1.0\souce\ds18b20.c" 1
  62  000D              	JMP $
  62  000D              	ENDIF
  62  000D              ;# 62 "E:\Project\17.HT66F4560_EVM_V1.0\CODE\HT66F4560_TuYa_FishTank_V1.0\souce\ds18b20.c" 1
  62  000D              	IF (20>=1) AND (20<( 4 + __PBP__ * 2))
  62  000D              ;# 62 "E:\Project\17.HT66F4560_EVM_V1.0\CODE\HT66F4560_TuYa_FishTank_V1.0\souce\ds18b20.c" 1
  62  000D              	NOP
  62  000D              	ENDIF
  62  000D              ;# 62 "E:\Project\17.HT66F4560_EVM_V1.0\CODE\HT66F4560_TuYa_FishTank_V1.0\souce\ds18b20.c" 1
  62  000D              	IF (20>=2) AND (20<( 4 + __PBP__ * 2))
  62  000D              ;# 62 "E:\Project\17.HT66F4560_EVM_V1.0\CODE\HT66F4560_TuYa_FishTank_V1.0\souce\ds18b20.c" 1
  62  000D              	NOP
  62  000D              	ENDIF
  62  000D              ;# 62 "E:\Project\17.HT66F4560_EVM_V1.0\CODE\HT66F4560_TuYa_FishTank_V1.0\souce\ds18b20.c" 1
  62  000D              	IF (20>=3) AND (20<( 4 + __PBP__ * 2))
  62  000D              ;# 62 "E:\Project\17.HT66F4560_EVM_V1.0\CODE\HT66F4560_TuYa_FishTank_V1.0\souce\ds18b20.c" 1
  62  000D              	NOP
  62  000D              	ENDIF
  62  000D              ;# 62 "E:\Project\17.HT66F4560_EVM_V1.0\CODE\HT66F4560_TuYa_FishTank_V1.0\souce\ds18b20.c" 1
  62  000D              	IF (20>=4) AND (20<( 4 + __PBP__ * 2)) AND ( __PBP__ > 0 )
  62  000D              ;# 62 "E:\Project\17.HT66F4560_EVM_V1.0\CODE\HT66F4560_TuYa_FishTank_V1.0\souce\ds18b20.c" 1
  62  000D              	NOP
"File: ds18b20.c     Assembler  Version HGASM0202      Page 11

  62  000D              	ENDIF
  62  000D              ;# 62 "E:\Project\17.HT66F4560_EVM_V1.0\CODE\HT66F4560_TuYa_FishTank_V1.0\souce\ds18b20.c" 1
  62  000D              	IF (20>=5) AND (20<( 4 + __PBP__ * 2)) AND ( __PBP__ > 0 )
  62  000D              ;# 62 "E:\Project\17.HT66F4560_EVM_V1.0\CODE\HT66F4560_TuYa_FishTank_V1.0\souce\ds18b20.c" 1
  62  000D              	NOP
  62  000D              	ENDIF
  62  000D              ;# 62 "E:\Project\17.HT66F4560_EVM_V1.0\CODE\HT66F4560_TuYa_FishTank_V1.0\souce\ds18b20.c" 1
  62  000D              	IF (20>=6) AND (20<( 4 + __PBP__ * 2))  AND ( __PBP__ > 1 )
  62  000D              ;# 62 "E:\Project\17.HT66F4560_EVM_V1.0\CODE\HT66F4560_TuYa_FishTank_V1.0\souce\ds18b20.c" 1
  62  000D              	NOP
  62  000D              	ENDIF
  62  000D              ;# 62 "E:\Project\17.HT66F4560_EVM_V1.0\CODE\HT66F4560_TuYa_FishTank_V1.0\souce\ds18b20.c" 1
  62  000D              	IF (20>=7) AND (20<( 4 + __PBP__ * 2))  AND ( __PBP__ > 1 )
  62  000D              ;# 62 "E:\Project\17.HT66F4560_EVM_V1.0\CODE\HT66F4560_TuYa_FishTank_V1.0\souce\ds18b20.c" 1
  62  000D              	NOP
  62  000D              	ENDIF
  62  000D              ;# 62 "E:\Project\17.HT66F4560_EVM_V1.0\CODE\HT66F4560_TuYa_FishTank_V1.0\souce\ds18b20.c" 1
  62  000D              	IF (20>=8) AND (20<( 4 + __PBP__ * 2))  AND ( __PBP__ > 2 )
  62  000D              ;# 62 "E:\Project\17.HT66F4560_EVM_V1.0\CODE\HT66F4560_TuYa_FishTank_V1.0\souce\ds18b20.c" 1
  62  000D              	NOP
  62  000D              	ENDIF
  62  000D              ;# 62 "E:\Project\17.HT66F4560_EVM_V1.0\CODE\HT66F4560_TuYa_FishTank_V1.0\souce\ds18b20.c" 1
  62  000D              	IF (20==9)  AND ( __PBP__ > 2 )
  62  000D              ;# 62 "E:\Project\17.HT66F4560_EVM_V1.0\CODE\HT66F4560_TuYa_FishTank_V1.0\souce\ds18b20.c" 1
  62  000D              	NOP
  62  000D              	ENDIF
  62  000D              ;# 62 "E:\Project\17.HT66F4560_EVM_V1.0\CODE\HT66F4560_TuYa_FishTank_V1.0\souce\ds18b20.c" 1
  62  000D              	IF (20< ( 8 + __PBP__ * 2)) AND (20>( 3 + __PBP__ * 2))
  62  000D              ;# 62 "E:\Project\17.HT66F4560_EVM_V1.0\CODE\HT66F4560_TuYa_FishTank_V1.0\souce\ds18b20.c" 1
  62  000D              	fcall __DELAY3 + ( 7 + __PBP__ * 2) -20
  62  000D              	ENDIF
  62  000D              ;# 62 "E:\Project\17.HT66F4560_EVM_V1.0\CODE\HT66F4560_TuYa_FishTank_V1.0\souce\ds18b20.c" 1
  62  000D              	IF (20< ( 0404h + __PBP__ * 2)) AND (20>( 7 + __PBP__ * 2))
  62  000D              ;# 62 "E:\Project\17.HT66F4560_EVM_V1.0\CODE\HT66F4560_TuYa_FishTank_V1.0\souce\ds18b20.c" 1
  62  000D  0F03        	MOV A,(20-( 4 + __PBP__ * 2))/4
  62  000E              ;# 62 "E:\Project\17.HT66F4560_EVM_V1.0\CODE\HT66F4560_TuYa_FishTank_V1.0\souce\ds18b20.c" 1
  62  000E              	fcall __DELAYX3 + 3 -((20-( 4 + __PBP__ * 2)) MOD 4) 
  62  0015              	ENDIF
  62  0015              ;# 62 "E:\Project\17.HT66F4560_EVM_V1.0\CODE\HT66F4560_TuYa_FishTank_V1.0\souce\ds18b20.c" 1
  62  0015              	IF (20< ( 040bh + __PBP__ * 2)) AND (20> ( 0403h + __PBP__ * 2))
  62  0015              ;# 62 "E:\Project\17.HT66F4560_EVM_V1.0\CODE\HT66F4560_TuYa_FishTank_V1.0\souce\ds18b20.c" 1
  62  0015              	MOV A,0 
  62  0015              ;# 62 "E:\Project\17.HT66F4560_EVM_V1.0\CODE\HT66F4560_TuYa_FishTank_V1.0\souce\ds18b20.c" 1
  62  0015              	fcall __DELAYX6 + ( 040ah + __PBP__ * 2) -20
  62  0015              	ENDIF
  62  0015              ;# 62 "E:\Project\17.HT66F4560_EVM_V1.0\CODE\HT66F4560_TuYa_FishTank_V1.0\souce\ds18b20.c" 1
  62  0015              	IF (20 >= ( 040bh + __PBP__ * 2)) AND ((((20-( 9 + __PBP__ * 2))%0402h)/4+1)>256)
  62  0015              ;# 62 "E:\Project\17.HT66F4560_EVM_V1.0\CODE\HT66F4560_TuYa_FishTank_V1.0\souce\ds18b20.c" 1
  62  0015              	MOV A,(20-( 9 + __PBP__ * 2))/0402h
  62  0015              ;# 62 "E:\Project\17.HT66F4560_EVM_V1.0\CODE\HT66F4560_TuYa_FishTank_V1.0\souce\ds18b20.c" 1
  62  0015              	MOV _builtin_holtek_delay_2,A
  62  0015              ;# 62 "E:\Project\17.HT66F4560_EVM_V1.0\CODE\HT66F4560_TuYa_FishTank_V1.0\souce\ds18b20.c" 1
  62  0015              	MOV A,0
  62  0015              ;# 62 "E:\Project\17.HT66F4560_EVM_V1.0\CODE\HT66F4560_TuYa_FishTank_V1.0\souce\ds18b20.c" 1
  62  0015              	fcall __DELAYY5 +5- (((20-( 9 + __PBP__ * 2))%0402h)%6) 
  62  0015              	ENDIF
  62  0015              ;# 62 "E:\Project\17.HT66F4560_EVM_V1.0\CODE\HT66F4560_TuYa_FishTank_V1.0\souce\ds18b20.c" 1
  62  0015              	IF (20 >= ( 040bh + __PBP__ * 2)) AND ((((20-( 9 + __PBP__ * 2))%0402h)/4+1)<=256)
  62  0015              ;# 62 "E:\Project\17.HT66F4560_EVM_V1.0\CODE\HT66F4560_TuYa_FishTank_V1.0\souce\ds18b20.c" 1
  62  0015              	MOV A,(20-( 9 + __PBP__ * 2))/0402h
"File: ds18b20.c     Assembler  Version HGASM0202      Page 12

  62  0015              ;# 62 "E:\Project\17.HT66F4560_EVM_V1.0\CODE\HT66F4560_TuYa_FishTank_V1.0\souce\ds18b20.c" 1
  62  0015              	MOV _builtin_holtek_delay_2,A
  62  0015              ;# 62 "E:\Project\17.HT66F4560_EVM_V1.0\CODE\HT66F4560_TuYa_FishTank_V1.0\souce\ds18b20.c" 1
  62  0015              	MOV A,((20-( 9 + __PBP__ * 2))%0402h)/4+1
  62  0015              ;# 62 "E:\Project\17.HT66F4560_EVM_V1.0\CODE\HT66F4560_TuYa_FishTank_V1.0\souce\ds18b20.c" 1
  62  0015              	fcall __DELAYY3 +3-(((20-( 9 + __PBP__ * 2))%0402h)%4) 
  62  0015              	ENDIF
  63  0015              #line 63 "E:\Project\17.HT66F4560_EVM_V1.0\CODE\HT66F4560_TuYa_FishTank_V1.0\souce\ds18b20.c"
  63  0015  1F00     E  	clr ra
  63  0016  BE68 0001   	lsz [360].4
  63  0018  1480     E  	inc ra
  68  0019              #line 68 "E:\Project\17.HT66F4560_EVM_V1.0\CODE\HT66F4560_TuYa_FishTank_V1.0\souce\ds18b20.c"
  68  0019  0700     E  	mov a,ra
  68  001A  0003        	ret
  68  001B              _DS18B20_Read_Bit endp
  68  001B              #line 68 "E:\Project\17.HT66F4560_EVM_V1.0\CODE\HT66F4560_TuYa_FishTank_V1.0\souce\ds18b20.c"
  68  001B              #pragma debug scope 1 1
  68  001B              public _DS18B20_Read_Byte
  68  001B              #pragma debug scope 5 1
  72  001B              #line 72 "E:\Project\17.HT66F4560_EVM_V1.0\CODE\HT66F4560_TuYa_FishTank_V1.0\souce\ds18b20.c"
  72  0000              _DS18B20_Read_Byte .section 'code'
  72  0000              _DS18B20_Read_Byte proc
  72  0000  0002[           local _DS18B20_Read_Byte_2 db 2 dup(?)	; 0,2
            00
            ]
  72  0002              #pragma debug variable 8 5 _DS18B20_Read_Byte_2+0 "dat"
  72  0000  0F08        	mov a,8
  72  0001  0080     R  	mov _DS18B20_Read_Byte_2[1],a
  74  0002              #line 74 "E:\Project\17.HT66F4560_EVM_V1.0\CODE\HT66F4560_TuYa_FishTank_V1.0\souce\ds18b20.c"
  74  0002  1F00     R  	clr _DS18B20_Read_Byte_2[0]
  74  0003              _L20:
  79  0003              #line 79 "E:\Project\17.HT66F4560_EVM_V1.0\CODE\HT66F4560_TuYa_FishTank_V1.0\souce\ds18b20.c"
  79  0003  340A        	clr c
  79  0004  1B80     R  	rrc _DS18B20_Read_Byte_2[0]
  80  0005              #line 80 "E:\Project\17.HT66F4560_EVM_V1.0\CODE\HT66F4560_TuYa_FishTank_V1.0\souce\ds18b20.c"
  80  0005              	fcall _DS18B20_Read_Bit
  80  000C  0080     E  	mov ra,a
  80  000D  1700     E  	sdza ra
  80  000E  2800     R  	jmp _L18
  82  000F              #line 82 "E:\Project\17.HT66F4560_EVM_V1.0\CODE\HT66F4560_TuYa_FishTank_V1.0\souce\ds18b20.c"
  82  000F  3000     R  	set _DS18B20_Read_Byte_2[0].7
  82  0010              _L18:
  85  0010              #line 85 "E:\Project\17.HT66F4560_EVM_V1.0\CODE\HT66F4560_TuYa_FishTank_V1.0\souce\ds18b20.c"
  85  0010              ;# 85 "E:\Project\17.HT66F4560_EVM_V1.0\CODE\HT66F4560_TuYa_FishTank_V1.0\souce\ds18b20.c" 1
  85  0010              	IF 150>263690
  85  0010              ;# 85 "E:\Project\17.HT66F4560_EVM_V1.0\CODE\HT66F4560_TuYa_FishTank_V1.0\souce\ds18b20.c" 1
  85  0010              	ERRMESSAGE 'the value 150of the argument exceeds the maxinum 263690'
  85  0010              	ENDIF
  85  0010              ;# 85 "E:\Project\17.HT66F4560_EVM_V1.0\CODE\HT66F4560_TuYa_FishTank_V1.0\souce\ds18b20.c" 1
  85  0010              	IF 150<0
  85  0010              ;# 85 "E:\Project\17.HT66F4560_EVM_V1.0\CODE\HT66F4560_TuYa_FishTank_V1.0\souce\ds18b20.c" 1
  85  0010              	ERRMESSAGE 'the value 150 of the argument exceeds the mininum 0'
  85  0010              	ENDIF
  85  0010              ;# 85 "E:\Project\17.HT66F4560_EVM_V1.0\CODE\HT66F4560_TuYa_FishTank_V1.0\souce\ds18b20.c" 1
  85  0010              	IF 150==0
  85  0010              ;# 85 "E:\Project\17.HT66F4560_EVM_V1.0\CODE\HT66F4560_TuYa_FishTank_V1.0\souce\ds18b20.c" 1
  85  0010              	JMP $
  85  0010              	ENDIF
  85  0010              ;# 85 "E:\Project\17.HT66F4560_EVM_V1.0\CODE\HT66F4560_TuYa_FishTank_V1.0\souce\ds18b20.c" 1
  85  0010              	IF (150>=1) AND (150<( 4 + __PBP__ * 2))
"File: ds18b20.c     Assembler  Version HGASM0202      Page 13

  85  0010              ;# 85 "E:\Project\17.HT66F4560_EVM_V1.0\CODE\HT66F4560_TuYa_FishTank_V1.0\souce\ds18b20.c" 1
  85  0010              	NOP
  85  0010              	ENDIF
  85  0010              ;# 85 "E:\Project\17.HT66F4560_EVM_V1.0\CODE\HT66F4560_TuYa_FishTank_V1.0\souce\ds18b20.c" 1
  85  0010              	IF (150>=2) AND (150<( 4 + __PBP__ * 2))
  85  0010              ;# 85 "E:\Project\17.HT66F4560_EVM_V1.0\CODE\HT66F4560_TuYa_FishTank_V1.0\souce\ds18b20.c" 1
  85  0010              	NOP
  85  0010              	ENDIF
  85  0010              ;# 85 "E:\Project\17.HT66F4560_EVM_V1.0\CODE\HT66F4560_TuYa_FishTank_V1.0\souce\ds18b20.c" 1
  85  0010              	IF (150>=3) AND (150<( 4 + __PBP__ * 2))
  85  0010              ;# 85 "E:\Project\17.HT66F4560_EVM_V1.0\CODE\HT66F4560_TuYa_FishTank_V1.0\souce\ds18b20.c" 1
  85  0010              	NOP
  85  0010              	ENDIF
  85  0010              ;# 85 "E:\Project\17.HT66F4560_EVM_V1.0\CODE\HT66F4560_TuYa_FishTank_V1.0\souce\ds18b20.c" 1
  85  0010              	IF (150>=4) AND (150<( 4 + __PBP__ * 2)) AND ( __PBP__ > 0 )
  85  0010              ;# 85 "E:\Project\17.HT66F4560_EVM_V1.0\CODE\HT66F4560_TuYa_FishTank_V1.0\souce\ds18b20.c" 1
  85  0010              	NOP
  85  0010              	ENDIF
  85  0010              ;# 85 "E:\Project\17.HT66F4560_EVM_V1.0\CODE\HT66F4560_TuYa_FishTank_V1.0\souce\ds18b20.c" 1
  85  0010              	IF (150>=5) AND (150<( 4 + __PBP__ * 2)) AND ( __PBP__ > 0 )
  85  0010              ;# 85 "E:\Project\17.HT66F4560_EVM_V1.0\CODE\HT66F4560_TuYa_FishTank_V1.0\souce\ds18b20.c" 1
  85  0010              	NOP
  85  0010              	ENDIF
  85  0010              ;# 85 "E:\Project\17.HT66F4560_EVM_V1.0\CODE\HT66F4560_TuYa_FishTank_V1.0\souce\ds18b20.c" 1
  85  0010              	IF (150>=6) AND (150<( 4 + __PBP__ * 2))  AND ( __PBP__ > 1 )
  85  0010              ;# 85 "E:\Project\17.HT66F4560_EVM_V1.0\CODE\HT66F4560_TuYa_FishTank_V1.0\souce\ds18b20.c" 1
  85  0010              	NOP
  85  0010              	ENDIF
  85  0010              ;# 85 "E:\Project\17.HT66F4560_EVM_V1.0\CODE\HT66F4560_TuYa_FishTank_V1.0\souce\ds18b20.c" 1
  85  0010              	IF (150>=7) AND (150<( 4 + __PBP__ * 2))  AND ( __PBP__ > 1 )
  85  0010              ;# 85 "E:\Project\17.HT66F4560_EVM_V1.0\CODE\HT66F4560_TuYa_FishTank_V1.0\souce\ds18b20.c" 1
  85  0010              	NOP
  85  0010              	ENDIF
  85  0010              ;# 85 "E:\Project\17.HT66F4560_EVM_V1.0\CODE\HT66F4560_TuYa_FishTank_V1.0\souce\ds18b20.c" 1
  85  0010              	IF (150>=8) AND (150<( 4 + __PBP__ * 2))  AND ( __PBP__ > 2 )
  85  0010              ;# 85 "E:\Project\17.HT66F4560_EVM_V1.0\CODE\HT66F4560_TuYa_FishTank_V1.0\souce\ds18b20.c" 1
  85  0010              	NOP
  85  0010              	ENDIF
  85  0010              ;# 85 "E:\Project\17.HT66F4560_EVM_V1.0\CODE\HT66F4560_TuYa_FishTank_V1.0\souce\ds18b20.c" 1
  85  0010              	IF (150==9)  AND ( __PBP__ > 2 )
  85  0010              ;# 85 "E:\Project\17.HT66F4560_EVM_V1.0\CODE\HT66F4560_TuYa_FishTank_V1.0\souce\ds18b20.c" 1
  85  0010              	NOP
  85  0010              	ENDIF
  85  0010              ;# 85 "E:\Project\17.HT66F4560_EVM_V1.0\CODE\HT66F4560_TuYa_FishTank_V1.0\souce\ds18b20.c" 1
  85  0010              	IF (150< ( 8 + __PBP__ * 2)) AND (150>( 3 + __PBP__ * 2))
  85  0010              ;# 85 "E:\Project\17.HT66F4560_EVM_V1.0\CODE\HT66F4560_TuYa_FishTank_V1.0\souce\ds18b20.c" 1
  85  0010              	fcall __DELAY3 + ( 7 + __PBP__ * 2) -150
  85  0010              	ENDIF
  85  0010              ;# 85 "E:\Project\17.HT66F4560_EVM_V1.0\CODE\HT66F4560_TuYa_FishTank_V1.0\souce\ds18b20.c" 1
  85  0010              	IF (150< ( 0404h + __PBP__ * 2)) AND (150>( 7 + __PBP__ * 2))
  85  0010              ;# 85 "E:\Project\17.HT66F4560_EVM_V1.0\CODE\HT66F4560_TuYa_FishTank_V1.0\souce\ds18b20.c" 1
  85  0010  0F24        	MOV A,(150-( 4 + __PBP__ * 2))/4
  85  0011              ;# 85 "E:\Project\17.HT66F4560_EVM_V1.0\CODE\HT66F4560_TuYa_FishTank_V1.0\souce\ds18b20.c" 1
  85  0011              	fcall __DELAYX3 + 3 -((150-( 4 + __PBP__ * 2)) MOD 4) 
  85  0018              	ENDIF
  85  0018              ;# 85 "E:\Project\17.HT66F4560_EVM_V1.0\CODE\HT66F4560_TuYa_FishTank_V1.0\souce\ds18b20.c" 1
  85  0018              	IF (150< ( 040bh + __PBP__ * 2)) AND (150> ( 0403h + __PBP__ * 2))
  85  0018              ;# 85 "E:\Project\17.HT66F4560_EVM_V1.0\CODE\HT66F4560_TuYa_FishTank_V1.0\souce\ds18b20.c" 1
  85  0018              	MOV A,0 
  85  0018              ;# 85 "E:\Project\17.HT66F4560_EVM_V1.0\CODE\HT66F4560_TuYa_FishTank_V1.0\souce\ds18b20.c" 1
"File: ds18b20.c     Assembler  Version HGASM0202      Page 14

  85  0018              	fcall __DELAYX6 + ( 040ah + __PBP__ * 2) -150
  85  0018              	ENDIF
  85  0018              ;# 85 "E:\Project\17.HT66F4560_EVM_V1.0\CODE\HT66F4560_TuYa_FishTank_V1.0\souce\ds18b20.c" 1
  85  0018              	IF (150 >= ( 040bh + __PBP__ * 2)) AND ((((150-( 9 + __PBP__ * 2))%0402h)/4+1)>256)
  85  0018              ;# 85 "E:\Project\17.HT66F4560_EVM_V1.0\CODE\HT66F4560_TuYa_FishTank_V1.0\souce\ds18b20.c" 1
  85  0018              	MOV A,(150-( 9 + __PBP__ * 2))/0402h
  85  0018              ;# 85 "E:\Project\17.HT66F4560_EVM_V1.0\CODE\HT66F4560_TuYa_FishTank_V1.0\souce\ds18b20.c" 1
  85  0018              	MOV _builtin_holtek_delay_2,A
  85  0018              ;# 85 "E:\Project\17.HT66F4560_EVM_V1.0\CODE\HT66F4560_TuYa_FishTank_V1.0\souce\ds18b20.c" 1
  85  0018              	MOV A,0
  85  0018              ;# 85 "E:\Project\17.HT66F4560_EVM_V1.0\CODE\HT66F4560_TuYa_FishTank_V1.0\souce\ds18b20.c" 1
  85  0018              	fcall __DELAYY5 +5- (((150-( 9 + __PBP__ * 2))%0402h)%6) 
  85  0018              	ENDIF
  85  0018              ;# 85 "E:\Project\17.HT66F4560_EVM_V1.0\CODE\HT66F4560_TuYa_FishTank_V1.0\souce\ds18b20.c" 1
  85  0018              	IF (150 >= ( 040bh + __PBP__ * 2)) AND ((((150-( 9 + __PBP__ * 2))%0402h)/4+1)<=256)
  85  0018              ;# 85 "E:\Project\17.HT66F4560_EVM_V1.0\CODE\HT66F4560_TuYa_FishTank_V1.0\souce\ds18b20.c" 1
  85  0018              	MOV A,(150-( 9 + __PBP__ * 2))/0402h
  85  0018              ;# 85 "E:\Project\17.HT66F4560_EVM_V1.0\CODE\HT66F4560_TuYa_FishTank_V1.0\souce\ds18b20.c" 1
  85  0018              	MOV _builtin_holtek_delay_2,A
  85  0018              ;# 85 "E:\Project\17.HT66F4560_EVM_V1.0\CODE\HT66F4560_TuYa_FishTank_V1.0\souce\ds18b20.c" 1
  85  0018              	MOV A,((150-( 9 + __PBP__ * 2))%0402h)/4+1
  85  0018              ;# 85 "E:\Project\17.HT66F4560_EVM_V1.0\CODE\HT66F4560_TuYa_FishTank_V1.0\souce\ds18b20.c" 1
  85  0018              	fcall __DELAYY3 +3-(((150-( 9 + __PBP__ * 2))%0402h)%4) 
  85  0018              	ENDIF
  85  0018  1780     R  	sdz _DS18B20_Read_Byte_2[1]
  85  0019  2800     R  	jmp _L20
  89  001A              #line 89 "E:\Project\17.HT66F4560_EVM_V1.0\CODE\HT66F4560_TuYa_FishTank_V1.0\souce\ds18b20.c"
  89  001A  0700     R  	mov a,_DS18B20_Read_Byte_2[0]
  89  001B  0003        	ret
  89  001C              _DS18B20_Read_Byte endp
  89  001C              #line 89 "E:\Project\17.HT66F4560_EVM_V1.0\CODE\HT66F4560_TuYa_FishTank_V1.0\souce\ds18b20.c"
  89  001C              #pragma debug scope 1 1
  89  001C              public _DS18B20_Write_Byte
  89  001C              #pragma debug scope 6 1
  93  001C              #line 93 "E:\Project\17.HT66F4560_EVM_V1.0\CODE\HT66F4560_TuYa_FishTank_V1.0\souce\ds18b20.c"
  93  0000              _DS18B20_Write_Byte .section 'code'
  93  0000              _DS18B20_Write_Byte proc
  93  0000  00              local _DS18B20_Write_Byte_2 db 1 dup(?)	; 0,1
  93  0000  0080     R  	mov _DS18B20_Write_Byte_2[0],a
  93  0001              #pragma debug variable 8 6 _DS18B20_Write_Byte_2+0 "dat"
  96  0001              #line 96 "E:\Project\17.HT66F4560_EVM_V1.0\CODE\HT66F4560_TuYa_FishTank_V1.0\souce\ds18b20.c"
  96  0001  B669 0001   	lclr [361].4
  96  0003  0F08        	mov a,8
  96  0004  0080     E  	mov ra,a
  96  0005              _L25:
  99  0005              #line 99 "E:\Project\17.HT66F4560_EVM_V1.0\CODE\HT66F4560_TuYa_FishTank_V1.0\souce\ds18b20.c"
  99  0005  0700     R  	mov a,_DS18B20_Write_Byte_2[0]
  99  0006  0E01        	and a,1
  99  0007  0080     E  	mov rb,a
 100  0008              #line 100 "E:\Project\17.HT66F4560_EVM_V1.0\CODE\HT66F4560_TuYa_FishTank_V1.0\souce\ds18b20.c"
 100  0008  340A        	clr c
 100  0009  1B80     R  	rrc _DS18B20_Write_Byte_2[0]
 103  000A              #line 103 "E:\Project\17.HT66F4560_EVM_V1.0\CODE\HT66F4560_TuYa_FishTank_V1.0\souce\ds18b20.c"
 103  000A  B668 0001   	lclr [360].4
 101  000C              #line 101 "E:\Project\17.HT66F4560_EVM_V1.0\CODE\HT66F4560_TuYa_FishTank_V1.0\souce\ds18b20.c"
 101  000C  1700     E  	sdza rb
 101  000D  2800     R  	jmp _L22
 104  000E              #line 104 "E:\Project\17.HT66F4560_EVM_V1.0\CODE\HT66F4560_TuYa_FishTank_V1.0\souce\ds18b20.c"
 104  000E              ;# 104 "E:\Project\17.HT66F4560_EVM_V1.0\CODE\HT66F4560_TuYa_FishTank_V1.0\souce\ds18b20.c" 1
 104  000E              	IF 6>263690
"File: ds18b20.c     Assembler  Version HGASM0202      Page 15

 104  000E              ;# 104 "E:\Project\17.HT66F4560_EVM_V1.0\CODE\HT66F4560_TuYa_FishTank_V1.0\souce\ds18b20.c" 1
 104  000E              	ERRMESSAGE 'the value 6of the argument exceeds the maxinum 263690'
 104  000E              	ENDIF
 104  000E              ;# 104 "E:\Project\17.HT66F4560_EVM_V1.0\CODE\HT66F4560_TuYa_FishTank_V1.0\souce\ds18b20.c" 1
 104  000E              	IF 6<0
 104  000E              ;# 104 "E:\Project\17.HT66F4560_EVM_V1.0\CODE\HT66F4560_TuYa_FishTank_V1.0\souce\ds18b20.c" 1
 104  000E              	ERRMESSAGE 'the value 6 of the argument exceeds the mininum 0'
 104  000E              	ENDIF
 104  000E              ;# 104 "E:\Project\17.HT66F4560_EVM_V1.0\CODE\HT66F4560_TuYa_FishTank_V1.0\souce\ds18b20.c" 1
 104  000E              	IF 6==0
 104  000E              ;# 104 "E:\Project\17.HT66F4560_EVM_V1.0\CODE\HT66F4560_TuYa_FishTank_V1.0\souce\ds18b20.c" 1
 104  000E              	JMP $
 104  000E              	ENDIF
 104  000E              ;# 104 "E:\Project\17.HT66F4560_EVM_V1.0\CODE\HT66F4560_TuYa_FishTank_V1.0\souce\ds18b20.c" 1
 104  000E              	IF (6>=1) AND (6<( 4 + __PBP__ * 2))
 104  000E              ;# 104 "E:\Project\17.HT66F4560_EVM_V1.0\CODE\HT66F4560_TuYa_FishTank_V1.0\souce\ds18b20.c" 1
 104  000E              	NOP
 104  000E              	ENDIF
 104  000E              ;# 104 "E:\Project\17.HT66F4560_EVM_V1.0\CODE\HT66F4560_TuYa_FishTank_V1.0\souce\ds18b20.c" 1
 104  000E              	IF (6>=2) AND (6<( 4 + __PBP__ * 2))
 104  000E              ;# 104 "E:\Project\17.HT66F4560_EVM_V1.0\CODE\HT66F4560_TuYa_FishTank_V1.0\souce\ds18b20.c" 1
 104  000E              	NOP
 104  000E              	ENDIF
 104  000E              ;# 104 "E:\Project\17.HT66F4560_EVM_V1.0\CODE\HT66F4560_TuYa_FishTank_V1.0\souce\ds18b20.c" 1
 104  000E              	IF (6>=3) AND (6<( 4 + __PBP__ * 2))
 104  000E              ;# 104 "E:\Project\17.HT66F4560_EVM_V1.0\CODE\HT66F4560_TuYa_FishTank_V1.0\souce\ds18b20.c" 1
 104  000E              	NOP
 104  000E              	ENDIF
 104  000E              ;# 104 "E:\Project\17.HT66F4560_EVM_V1.0\CODE\HT66F4560_TuYa_FishTank_V1.0\souce\ds18b20.c" 1
 104  000E              	IF (6>=4) AND (6<( 4 + __PBP__ * 2)) AND ( __PBP__ > 0 )
 104  000E              ;# 104 "E:\Project\17.HT66F4560_EVM_V1.0\CODE\HT66F4560_TuYa_FishTank_V1.0\souce\ds18b20.c" 1
 104  000E              	NOP
 104  000E              	ENDIF
 104  000E              ;# 104 "E:\Project\17.HT66F4560_EVM_V1.0\CODE\HT66F4560_TuYa_FishTank_V1.0\souce\ds18b20.c" 1
 104  000E              	IF (6>=5) AND (6<( 4 + __PBP__ * 2)) AND ( __PBP__ > 0 )
 104  000E              ;# 104 "E:\Project\17.HT66F4560_EVM_V1.0\CODE\HT66F4560_TuYa_FishTank_V1.0\souce\ds18b20.c" 1
 104  000E              	NOP
 104  000E              	ENDIF
 104  000E              ;# 104 "E:\Project\17.HT66F4560_EVM_V1.0\CODE\HT66F4560_TuYa_FishTank_V1.0\souce\ds18b20.c" 1
 104  000E              	IF (6>=6) AND (6<( 4 + __PBP__ * 2))  AND ( __PBP__ > 1 )
 104  000E              ;# 104 "E:\Project\17.HT66F4560_EVM_V1.0\CODE\HT66F4560_TuYa_FishTank_V1.0\souce\ds18b20.c" 1
 104  000E              	NOP
 104  000E              	ENDIF
 104  000E              ;# 104 "E:\Project\17.HT66F4560_EVM_V1.0\CODE\HT66F4560_TuYa_FishTank_V1.0\souce\ds18b20.c" 1
 104  000E              	IF (6>=7) AND (6<( 4 + __PBP__ * 2))  AND ( __PBP__ > 1 )
 104  000E              ;# 104 "E:\Project\17.HT66F4560_EVM_V1.0\CODE\HT66F4560_TuYa_FishTank_V1.0\souce\ds18b20.c" 1
 104  000E              	NOP
 104  000E              	ENDIF
 104  000E              ;# 104 "E:\Project\17.HT66F4560_EVM_V1.0\CODE\HT66F4560_TuYa_FishTank_V1.0\souce\ds18b20.c" 1
 104  000E              	IF (6>=8) AND (6<( 4 + __PBP__ * 2))  AND ( __PBP__ > 2 )
 104  000E              ;# 104 "E:\Project\17.HT66F4560_EVM_V1.0\CODE\HT66F4560_TuYa_FishTank_V1.0\souce\ds18b20.c" 1
 104  000E              	NOP
 104  000E              	ENDIF
 104  000E              ;# 104 "E:\Project\17.HT66F4560_EVM_V1.0\CODE\HT66F4560_TuYa_FishTank_V1.0\souce\ds18b20.c" 1
 104  000E              	IF (6==9)  AND ( __PBP__ > 2 )
 104  000E              ;# 104 "E:\Project\17.HT66F4560_EVM_V1.0\CODE\HT66F4560_TuYa_FishTank_V1.0\souce\ds18b20.c" 1
 104  000E              	NOP
 104  000E              	ENDIF
 104  000E              ;# 104 "E:\Project\17.HT66F4560_EVM_V1.0\CODE\HT66F4560_TuYa_FishTank_V1.0\souce\ds18b20.c" 1
 104  000E              	IF (6< ( 8 + __PBP__ * 2)) AND (6>( 3 + __PBP__ * 2))
"File: ds18b20.c     Assembler  Version HGASM0202      Page 16

 104  000E              ;# 104 "E:\Project\17.HT66F4560_EVM_V1.0\CODE\HT66F4560_TuYa_FishTank_V1.0\souce\ds18b20.c" 1
 104  000E              	fcall __DELAY3 + ( 7 + __PBP__ * 2) -6
 104  0015              	ENDIF
 104  0015              ;# 104 "E:\Project\17.HT66F4560_EVM_V1.0\CODE\HT66F4560_TuYa_FishTank_V1.0\souce\ds18b20.c" 1
 104  0015              	IF (6< ( 0404h + __PBP__ * 2)) AND (6>( 7 + __PBP__ * 2))
 104  0015              ;# 104 "E:\Project\17.HT66F4560_EVM_V1.0\CODE\HT66F4560_TuYa_FishTank_V1.0\souce\ds18b20.c" 1
 104  0015              	MOV A,(6-( 4 + __PBP__ * 2))/4
 104  0015              ;# 104 "E:\Project\17.HT66F4560_EVM_V1.0\CODE\HT66F4560_TuYa_FishTank_V1.0\souce\ds18b20.c" 1
 104  0015              	fcall __DELAYX3 + 3 -((6-( 4 + __PBP__ * 2)) MOD 4) 
 104  0015              	ENDIF
 104  0015              ;# 104 "E:\Project\17.HT66F4560_EVM_V1.0\CODE\HT66F4560_TuYa_FishTank_V1.0\souce\ds18b20.c" 1
 104  0015              	IF (6< ( 040bh + __PBP__ * 2)) AND (6> ( 0403h + __PBP__ * 2))
 104  0015              ;# 104 "E:\Project\17.HT66F4560_EVM_V1.0\CODE\HT66F4560_TuYa_FishTank_V1.0\souce\ds18b20.c" 1
 104  0015              	MOV A,0 
 104  0015              ;# 104 "E:\Project\17.HT66F4560_EVM_V1.0\CODE\HT66F4560_TuYa_FishTank_V1.0\souce\ds18b20.c" 1
 104  0015              	fcall __DELAYX6 + ( 040ah + __PBP__ * 2) -6
 104  0015              	ENDIF
 104  0015              ;# 104 "E:\Project\17.HT66F4560_EVM_V1.0\CODE\HT66F4560_TuYa_FishTank_V1.0\souce\ds18b20.c" 1
 104  0015              	IF (6 >= ( 040bh + __PBP__ * 2)) AND ((((6-( 9 + __PBP__ * 2))%0402h)/4+1)>256)
 104  0015              ;# 104 "E:\Project\17.HT66F4560_EVM_V1.0\CODE\HT66F4560_TuYa_FishTank_V1.0\souce\ds18b20.c" 1
 104  0015              	MOV A,(6-( 9 + __PBP__ * 2))/0402h
 104  0015              ;# 104 "E:\Project\17.HT66F4560_EVM_V1.0\CODE\HT66F4560_TuYa_FishTank_V1.0\souce\ds18b20.c" 1
 104  0015              	MOV _builtin_holtek_delay_2,A
 104  0015              ;# 104 "E:\Project\17.HT66F4560_EVM_V1.0\CODE\HT66F4560_TuYa_FishTank_V1.0\souce\ds18b20.c" 1
 104  0015              	MOV A,0
 104  0015              ;# 104 "E:\Project\17.HT66F4560_EVM_V1.0\CODE\HT66F4560_TuYa_FishTank_V1.0\souce\ds18b20.c" 1
 104  0015              	fcall __DELAYY5 +5- (((6-( 9 + __PBP__ * 2))%0402h)%6) 
 104  0015              	ENDIF
 104  0015              ;# 104 "E:\Project\17.HT66F4560_EVM_V1.0\CODE\HT66F4560_TuYa_FishTank_V1.0\souce\ds18b20.c" 1
 104  0015              	IF (6 >= ( 040bh + __PBP__ * 2)) AND ((((6-( 9 + __PBP__ * 2))%0402h)/4+1)<=256)
 104  0015              ;# 104 "E:\Project\17.HT66F4560_EVM_V1.0\CODE\HT66F4560_TuYa_FishTank_V1.0\souce\ds18b20.c" 1
 104  0015              	MOV A,(6-( 9 + __PBP__ * 2))/0402h
 104  0015              ;# 104 "E:\Project\17.HT66F4560_EVM_V1.0\CODE\HT66F4560_TuYa_FishTank_V1.0\souce\ds18b20.c" 1
 104  0015              	MOV _builtin_holtek_delay_2,A
 104  0015              ;# 104 "E:\Project\17.HT66F4560_EVM_V1.0\CODE\HT66F4560_TuYa_FishTank_V1.0\souce\ds18b20.c" 1
 104  0015              	MOV A,((6-( 9 + __PBP__ * 2))%0402h)/4+1
 104  0015              ;# 104 "E:\Project\17.HT66F4560_EVM_V1.0\CODE\HT66F4560_TuYa_FishTank_V1.0\souce\ds18b20.c" 1
 104  0015              	fcall __DELAYY3 +3-(((6-( 9 + __PBP__ * 2))%0402h)%4) 
 104  0015              	ENDIF
 105  0015              #line 105 "E:\Project\17.HT66F4560_EVM_V1.0\CODE\HT66F4560_TuYa_FishTank_V1.0\souce\ds18b20.c"
 105  0015  B268 0001   	lset [360].4
 106  0017              #line 106 "E:\Project\17.HT66F4560_EVM_V1.0\CODE\HT66F4560_TuYa_FishTank_V1.0\souce\ds18b20.c"
 106  0017              ;# 106 "E:\Project\17.HT66F4560_EVM_V1.0\CODE\HT66F4560_TuYa_FishTank_V1.0\souce\ds18b20.c" 1
 106  0017              	IF 120>263690
 106  0017              ;# 106 "E:\Project\17.HT66F4560_EVM_V1.0\CODE\HT66F4560_TuYa_FishTank_V1.0\souce\ds18b20.c" 1
 106  0017              	ERRMESSAGE 'the value 120of the argument exceeds the maxinum 263690'
 106  0017              	ENDIF
 106  0017              ;# 106 "E:\Project\17.HT66F4560_EVM_V1.0\CODE\HT66F4560_TuYa_FishTank_V1.0\souce\ds18b20.c" 1
 106  0017              	IF 120<0
 106  0017              ;# 106 "E:\Project\17.HT66F4560_EVM_V1.0\CODE\HT66F4560_TuYa_FishTank_V1.0\souce\ds18b20.c" 1
 106  0017              	ERRMESSAGE 'the value 120 of the argument exceeds the mininum 0'
 106  0017              	ENDIF
 106  0017              ;# 106 "E:\Project\17.HT66F4560_EVM_V1.0\CODE\HT66F4560_TuYa_FishTank_V1.0\souce\ds18b20.c" 1
 106  0017              	IF 120==0
 106  0017              ;# 106 "E:\Project\17.HT66F4560_EVM_V1.0\CODE\HT66F4560_TuYa_FishTank_V1.0\souce\ds18b20.c" 1
 106  0017              	JMP $
 106  0017              	ENDIF
 106  0017              ;# 106 "E:\Project\17.HT66F4560_EVM_V1.0\CODE\HT66F4560_TuYa_FishTank_V1.0\souce\ds18b20.c" 1
 106  0017              	IF (120>=1) AND (120<( 4 + __PBP__ * 2))
 106  0017              ;# 106 "E:\Project\17.HT66F4560_EVM_V1.0\CODE\HT66F4560_TuYa_FishTank_V1.0\souce\ds18b20.c" 1
"File: ds18b20.c     Assembler  Version HGASM0202      Page 17

 106  0017              	NOP
 106  0017              	ENDIF
 106  0017              ;# 106 "E:\Project\17.HT66F4560_EVM_V1.0\CODE\HT66F4560_TuYa_FishTank_V1.0\souce\ds18b20.c" 1
 106  0017              	IF (120>=2) AND (120<( 4 + __PBP__ * 2))
 106  0017              ;# 106 "E:\Project\17.HT66F4560_EVM_V1.0\CODE\HT66F4560_TuYa_FishTank_V1.0\souce\ds18b20.c" 1
 106  0017              	NOP
 106  0017              	ENDIF
 106  0017              ;# 106 "E:\Project\17.HT66F4560_EVM_V1.0\CODE\HT66F4560_TuYa_FishTank_V1.0\souce\ds18b20.c" 1
 106  0017              	IF (120>=3) AND (120<( 4 + __PBP__ * 2))
 106  0017              ;# 106 "E:\Project\17.HT66F4560_EVM_V1.0\CODE\HT66F4560_TuYa_FishTank_V1.0\souce\ds18b20.c" 1
 106  0017              	NOP
 106  0017              	ENDIF
 106  0017              ;# 106 "E:\Project\17.HT66F4560_EVM_V1.0\CODE\HT66F4560_TuYa_FishTank_V1.0\souce\ds18b20.c" 1
 106  0017              	IF (120>=4) AND (120<( 4 + __PBP__ * 2)) AND ( __PBP__ > 0 )
 106  0017              ;# 106 "E:\Project\17.HT66F4560_EVM_V1.0\CODE\HT66F4560_TuYa_FishTank_V1.0\souce\ds18b20.c" 1
 106  0017              	NOP
 106  0017              	ENDIF
 106  0017              ;# 106 "E:\Project\17.HT66F4560_EVM_V1.0\CODE\HT66F4560_TuYa_FishTank_V1.0\souce\ds18b20.c" 1
 106  0017              	IF (120>=5) AND (120<( 4 + __PBP__ * 2)) AND ( __PBP__ > 0 )
 106  0017              ;# 106 "E:\Project\17.HT66F4560_EVM_V1.0\CODE\HT66F4560_TuYa_FishTank_V1.0\souce\ds18b20.c" 1
 106  0017              	NOP
 106  0017              	ENDIF
 106  0017              ;# 106 "E:\Project\17.HT66F4560_EVM_V1.0\CODE\HT66F4560_TuYa_FishTank_V1.0\souce\ds18b20.c" 1
 106  0017              	IF (120>=6) AND (120<( 4 + __PBP__ * 2))  AND ( __PBP__ > 1 )
 106  0017              ;# 106 "E:\Project\17.HT66F4560_EVM_V1.0\CODE\HT66F4560_TuYa_FishTank_V1.0\souce\ds18b20.c" 1
 106  0017              	NOP
 106  0017              	ENDIF
 106  0017              ;# 106 "E:\Project\17.HT66F4560_EVM_V1.0\CODE\HT66F4560_TuYa_FishTank_V1.0\souce\ds18b20.c" 1
 106  0017              	IF (120>=7) AND (120<( 4 + __PBP__ * 2))  AND ( __PBP__ > 1 )
 106  0017              ;# 106 "E:\Project\17.HT66F4560_EVM_V1.0\CODE\HT66F4560_TuYa_FishTank_V1.0\souce\ds18b20.c" 1
 106  0017              	NOP
 106  0017              	ENDIF
 106  0017              ;# 106 "E:\Project\17.HT66F4560_EVM_V1.0\CODE\HT66F4560_TuYa_FishTank_V1.0\souce\ds18b20.c" 1
 106  0017              	IF (120>=8) AND (120<( 4 + __PBP__ * 2))  AND ( __PBP__ > 2 )
 106  0017              ;# 106 "E:\Project\17.HT66F4560_EVM_V1.0\CODE\HT66F4560_TuYa_FishTank_V1.0\souce\ds18b20.c" 1
 106  0017              	NOP
 106  0017              	ENDIF
 106  0017              ;# 106 "E:\Project\17.HT66F4560_EVM_V1.0\CODE\HT66F4560_TuYa_FishTank_V1.0\souce\ds18b20.c" 1
 106  0017              	IF (120==9)  AND ( __PBP__ > 2 )
 106  0017              ;# 106 "E:\Project\17.HT66F4560_EVM_V1.0\CODE\HT66F4560_TuYa_FishTank_V1.0\souce\ds18b20.c" 1
 106  0017              	NOP
 106  0017              	ENDIF
 106  0017              ;# 106 "E:\Project\17.HT66F4560_EVM_V1.0\CODE\HT66F4560_TuYa_FishTank_V1.0\souce\ds18b20.c" 1
 106  0017              	IF (120< ( 8 + __PBP__ * 2)) AND (120>( 3 + __PBP__ * 2))
 106  0017              ;# 106 "E:\Project\17.HT66F4560_EVM_V1.0\CODE\HT66F4560_TuYa_FishTank_V1.0\souce\ds18b20.c" 1
 106  0017              	fcall __DELAY3 + ( 7 + __PBP__ * 2) -120
 106  0017              	ENDIF
 106  0017              ;# 106 "E:\Project\17.HT66F4560_EVM_V1.0\CODE\HT66F4560_TuYa_FishTank_V1.0\souce\ds18b20.c" 1
 106  0017              	IF (120< ( 0404h + __PBP__ * 2)) AND (120>( 7 + __PBP__ * 2))
 106  0017              ;# 106 "E:\Project\17.HT66F4560_EVM_V1.0\CODE\HT66F4560_TuYa_FishTank_V1.0\souce\ds18b20.c" 1
 106  0017  0F1C        	MOV A,(120-( 4 + __PBP__ * 2))/4
 106  0018              ;# 106 "E:\Project\17.HT66F4560_EVM_V1.0\CODE\HT66F4560_TuYa_FishTank_V1.0\souce\ds18b20.c" 1
 106  0018              	fcall __DELAYX3 + 3 -((120-( 4 + __PBP__ * 2)) MOD 4) 
 106  001F              	ENDIF
 106  001F              ;# 106 "E:\Project\17.HT66F4560_EVM_V1.0\CODE\HT66F4560_TuYa_FishTank_V1.0\souce\ds18b20.c" 1
 106  001F              	IF (120< ( 040bh + __PBP__ * 2)) AND (120> ( 0403h + __PBP__ * 2))
 106  001F              ;# 106 "E:\Project\17.HT66F4560_EVM_V1.0\CODE\HT66F4560_TuYa_FishTank_V1.0\souce\ds18b20.c" 1
 106  001F              	MOV A,0 
 106  001F              ;# 106 "E:\Project\17.HT66F4560_EVM_V1.0\CODE\HT66F4560_TuYa_FishTank_V1.0\souce\ds18b20.c" 1
 106  001F              	fcall __DELAYX6 + ( 040ah + __PBP__ * 2) -120
"File: ds18b20.c     Assembler  Version HGASM0202      Page 18

 106  001F              	ENDIF
 106  001F              ;# 106 "E:\Project\17.HT66F4560_EVM_V1.0\CODE\HT66F4560_TuYa_FishTank_V1.0\souce\ds18b20.c" 1
 106  001F              	IF (120 >= ( 040bh + __PBP__ * 2)) AND ((((120-( 9 + __PBP__ * 2))%0402h)/4+1)>256)
 106  001F              ;# 106 "E:\Project\17.HT66F4560_EVM_V1.0\CODE\HT66F4560_TuYa_FishTank_V1.0\souce\ds18b20.c" 1
 106  001F              	MOV A,(120-( 9 + __PBP__ * 2))/0402h
 106  001F              ;# 106 "E:\Project\17.HT66F4560_EVM_V1.0\CODE\HT66F4560_TuYa_FishTank_V1.0\souce\ds18b20.c" 1
 106  001F              	MOV _builtin_holtek_delay_2,A
 106  001F              ;# 106 "E:\Project\17.HT66F4560_EVM_V1.0\CODE\HT66F4560_TuYa_FishTank_V1.0\souce\ds18b20.c" 1
 106  001F              	MOV A,0
 106  001F              ;# 106 "E:\Project\17.HT66F4560_EVM_V1.0\CODE\HT66F4560_TuYa_FishTank_V1.0\souce\ds18b20.c" 1
 106  001F              	fcall __DELAYY5 +5- (((120-( 9 + __PBP__ * 2))%0402h)%6) 
 106  001F              	ENDIF
 106  001F              ;# 106 "E:\Project\17.HT66F4560_EVM_V1.0\CODE\HT66F4560_TuYa_FishTank_V1.0\souce\ds18b20.c" 1
 106  001F              	IF (120 >= ( 040bh + __PBP__ * 2)) AND ((((120-( 9 + __PBP__ * 2))%0402h)/4+1)<=256)
 106  001F              ;# 106 "E:\Project\17.HT66F4560_EVM_V1.0\CODE\HT66F4560_TuYa_FishTank_V1.0\souce\ds18b20.c" 1
 106  001F              	MOV A,(120-( 9 + __PBP__ * 2))/0402h
 106  001F              ;# 106 "E:\Project\17.HT66F4560_EVM_V1.0\CODE\HT66F4560_TuYa_FishTank_V1.0\souce\ds18b20.c" 1
 106  001F              	MOV _builtin_holtek_delay_2,A
 106  001F              ;# 106 "E:\Project\17.HT66F4560_EVM_V1.0\CODE\HT66F4560_TuYa_FishTank_V1.0\souce\ds18b20.c" 1
 106  001F              	MOV A,((120-( 9 + __PBP__ * 2))%0402h)/4+1
 106  001F              ;# 106 "E:\Project\17.HT66F4560_EVM_V1.0\CODE\HT66F4560_TuYa_FishTank_V1.0\souce\ds18b20.c" 1
 106  001F              	fcall __DELAYY3 +3-(((120-( 9 + __PBP__ * 2))%0402h)%4) 
 106  001F              	ENDIF
 106  001F  2800     R  	jmp _L23
 106  0020              _L22:
 111  0020              #line 111 "E:\Project\17.HT66F4560_EVM_V1.0\CODE\HT66F4560_TuYa_FishTank_V1.0\souce\ds18b20.c"
 111  0020              ;# 111 "E:\Project\17.HT66F4560_EVM_V1.0\CODE\HT66F4560_TuYa_FishTank_V1.0\souce\ds18b20.c" 1
 111  0020              	IF 150>263690
 111  0020              ;# 111 "E:\Project\17.HT66F4560_EVM_V1.0\CODE\HT66F4560_TuYa_FishTank_V1.0\souce\ds18b20.c" 1
 111  0020              	ERRMESSAGE 'the value 150of the argument exceeds the maxinum 263690'
 111  0020              	ENDIF
 111  0020              ;# 111 "E:\Project\17.HT66F4560_EVM_V1.0\CODE\HT66F4560_TuYa_FishTank_V1.0\souce\ds18b20.c" 1
 111  0020              	IF 150<0
 111  0020              ;# 111 "E:\Project\17.HT66F4560_EVM_V1.0\CODE\HT66F4560_TuYa_FishTank_V1.0\souce\ds18b20.c" 1
 111  0020              	ERRMESSAGE 'the value 150 of the argument exceeds the mininum 0'
 111  0020              	ENDIF
 111  0020              ;# 111 "E:\Project\17.HT66F4560_EVM_V1.0\CODE\HT66F4560_TuYa_FishTank_V1.0\souce\ds18b20.c" 1
 111  0020              	IF 150==0
 111  0020              ;# 111 "E:\Project\17.HT66F4560_EVM_V1.0\CODE\HT66F4560_TuYa_FishTank_V1.0\souce\ds18b20.c" 1
 111  0020              	JMP $
 111  0020              	ENDIF
 111  0020              ;# 111 "E:\Project\17.HT66F4560_EVM_V1.0\CODE\HT66F4560_TuYa_FishTank_V1.0\souce\ds18b20.c" 1
 111  0020              	IF (150>=1) AND (150<( 4 + __PBP__ * 2))
 111  0020              ;# 111 "E:\Project\17.HT66F4560_EVM_V1.0\CODE\HT66F4560_TuYa_FishTank_V1.0\souce\ds18b20.c" 1
 111  0020              	NOP
 111  0020              	ENDIF
 111  0020              ;# 111 "E:\Project\17.HT66F4560_EVM_V1.0\CODE\HT66F4560_TuYa_FishTank_V1.0\souce\ds18b20.c" 1
 111  0020              	IF (150>=2) AND (150<( 4 + __PBP__ * 2))
 111  0020              ;# 111 "E:\Project\17.HT66F4560_EVM_V1.0\CODE\HT66F4560_TuYa_FishTank_V1.0\souce\ds18b20.c" 1
 111  0020              	NOP
 111  0020              	ENDIF
 111  0020              ;# 111 "E:\Project\17.HT66F4560_EVM_V1.0\CODE\HT66F4560_TuYa_FishTank_V1.0\souce\ds18b20.c" 1
 111  0020              	IF (150>=3) AND (150<( 4 + __PBP__ * 2))
 111  0020              ;# 111 "E:\Project\17.HT66F4560_EVM_V1.0\CODE\HT66F4560_TuYa_FishTank_V1.0\souce\ds18b20.c" 1
 111  0020              	NOP
 111  0020              	ENDIF
 111  0020              ;# 111 "E:\Project\17.HT66F4560_EVM_V1.0\CODE\HT66F4560_TuYa_FishTank_V1.0\souce\ds18b20.c" 1
 111  0020              	IF (150>=4) AND (150<( 4 + __PBP__ * 2)) AND ( __PBP__ > 0 )
 111  0020              ;# 111 "E:\Project\17.HT66F4560_EVM_V1.0\CODE\HT66F4560_TuYa_FishTank_V1.0\souce\ds18b20.c" 1
 111  0020              	NOP
"File: ds18b20.c     Assembler  Version HGASM0202      Page 19

 111  0020              	ENDIF
 111  0020              ;# 111 "E:\Project\17.HT66F4560_EVM_V1.0\CODE\HT66F4560_TuYa_FishTank_V1.0\souce\ds18b20.c" 1
 111  0020              	IF (150>=5) AND (150<( 4 + __PBP__ * 2)) AND ( __PBP__ > 0 )
 111  0020              ;# 111 "E:\Project\17.HT66F4560_EVM_V1.0\CODE\HT66F4560_TuYa_FishTank_V1.0\souce\ds18b20.c" 1
 111  0020              	NOP
 111  0020              	ENDIF
 111  0020              ;# 111 "E:\Project\17.HT66F4560_EVM_V1.0\CODE\HT66F4560_TuYa_FishTank_V1.0\souce\ds18b20.c" 1
 111  0020              	IF (150>=6) AND (150<( 4 + __PBP__ * 2))  AND ( __PBP__ > 1 )
 111  0020              ;# 111 "E:\Project\17.HT66F4560_EVM_V1.0\CODE\HT66F4560_TuYa_FishTank_V1.0\souce\ds18b20.c" 1
 111  0020              	NOP
 111  0020              	ENDIF
 111  0020              ;# 111 "E:\Project\17.HT66F4560_EVM_V1.0\CODE\HT66F4560_TuYa_FishTank_V1.0\souce\ds18b20.c" 1
 111  0020              	IF (150>=7) AND (150<( 4 + __PBP__ * 2))  AND ( __PBP__ > 1 )
 111  0020              ;# 111 "E:\Project\17.HT66F4560_EVM_V1.0\CODE\HT66F4560_TuYa_FishTank_V1.0\souce\ds18b20.c" 1
 111  0020              	NOP
 111  0020              	ENDIF
 111  0020              ;# 111 "E:\Project\17.HT66F4560_EVM_V1.0\CODE\HT66F4560_TuYa_FishTank_V1.0\souce\ds18b20.c" 1
 111  0020              	IF (150>=8) AND (150<( 4 + __PBP__ * 2))  AND ( __PBP__ > 2 )
 111  0020              ;# 111 "E:\Project\17.HT66F4560_EVM_V1.0\CODE\HT66F4560_TuYa_FishTank_V1.0\souce\ds18b20.c" 1
 111  0020              	NOP
 111  0020              	ENDIF
 111  0020              ;# 111 "E:\Project\17.HT66F4560_EVM_V1.0\CODE\HT66F4560_TuYa_FishTank_V1.0\souce\ds18b20.c" 1
 111  0020              	IF (150==9)  AND ( __PBP__ > 2 )
 111  0020              ;# 111 "E:\Project\17.HT66F4560_EVM_V1.0\CODE\HT66F4560_TuYa_FishTank_V1.0\souce\ds18b20.c" 1
 111  0020              	NOP
 111  0020              	ENDIF
 111  0020              ;# 111 "E:\Project\17.HT66F4560_EVM_V1.0\CODE\HT66F4560_TuYa_FishTank_V1.0\souce\ds18b20.c" 1
 111  0020              	IF (150< ( 8 + __PBP__ * 2)) AND (150>( 3 + __PBP__ * 2))
 111  0020              ;# 111 "E:\Project\17.HT66F4560_EVM_V1.0\CODE\HT66F4560_TuYa_FishTank_V1.0\souce\ds18b20.c" 1
 111  0020              	fcall __DELAY3 + ( 7 + __PBP__ * 2) -150
 111  0020              	ENDIF
 111  0020              ;# 111 "E:\Project\17.HT66F4560_EVM_V1.0\CODE\HT66F4560_TuYa_FishTank_V1.0\souce\ds18b20.c" 1
 111  0020              	IF (150< ( 0404h + __PBP__ * 2)) AND (150>( 7 + __PBP__ * 2))
 111  0020              ;# 111 "E:\Project\17.HT66F4560_EVM_V1.0\CODE\HT66F4560_TuYa_FishTank_V1.0\souce\ds18b20.c" 1
 111  0020  0F24        	MOV A,(150-( 4 + __PBP__ * 2))/4
 111  0021              ;# 111 "E:\Project\17.HT66F4560_EVM_V1.0\CODE\HT66F4560_TuYa_FishTank_V1.0\souce\ds18b20.c" 1
 111  0021              	fcall __DELAYX3 + 3 -((150-( 4 + __PBP__ * 2)) MOD 4) 
 111  0028              	ENDIF
 111  0028              ;# 111 "E:\Project\17.HT66F4560_EVM_V1.0\CODE\HT66F4560_TuYa_FishTank_V1.0\souce\ds18b20.c" 1
 111  0028              	IF (150< ( 040bh + __PBP__ * 2)) AND (150> ( 0403h + __PBP__ * 2))
 111  0028              ;# 111 "E:\Project\17.HT66F4560_EVM_V1.0\CODE\HT66F4560_TuYa_FishTank_V1.0\souce\ds18b20.c" 1
 111  0028              	MOV A,0 
 111  0028              ;# 111 "E:\Project\17.HT66F4560_EVM_V1.0\CODE\HT66F4560_TuYa_FishTank_V1.0\souce\ds18b20.c" 1
 111  0028              	fcall __DELAYX6 + ( 040ah + __PBP__ * 2) -150
 111  0028              	ENDIF
 111  0028              ;# 111 "E:\Project\17.HT66F4560_EVM_V1.0\CODE\HT66F4560_TuYa_FishTank_V1.0\souce\ds18b20.c" 1
 111  0028              	IF (150 >= ( 040bh + __PBP__ * 2)) AND ((((150-( 9 + __PBP__ * 2))%0402h)/4+1)>256)
 111  0028              ;# 111 "E:\Project\17.HT66F4560_EVM_V1.0\CODE\HT66F4560_TuYa_FishTank_V1.0\souce\ds18b20.c" 1
 111  0028              	MOV A,(150-( 9 + __PBP__ * 2))/0402h
 111  0028              ;# 111 "E:\Project\17.HT66F4560_EVM_V1.0\CODE\HT66F4560_TuYa_FishTank_V1.0\souce\ds18b20.c" 1
 111  0028              	MOV _builtin_holtek_delay_2,A
 111  0028              ;# 111 "E:\Project\17.HT66F4560_EVM_V1.0\CODE\HT66F4560_TuYa_FishTank_V1.0\souce\ds18b20.c" 1
 111  0028              	MOV A,0
 111  0028              ;# 111 "E:\Project\17.HT66F4560_EVM_V1.0\CODE\HT66F4560_TuYa_FishTank_V1.0\souce\ds18b20.c" 1
 111  0028              	fcall __DELAYY5 +5- (((150-( 9 + __PBP__ * 2))%0402h)%6) 
 111  0028              	ENDIF
 111  0028              ;# 111 "E:\Project\17.HT66F4560_EVM_V1.0\CODE\HT66F4560_TuYa_FishTank_V1.0\souce\ds18b20.c" 1
 111  0028              	IF (150 >= ( 040bh + __PBP__ * 2)) AND ((((150-( 9 + __PBP__ * 2))%0402h)/4+1)<=256)
 111  0028              ;# 111 "E:\Project\17.HT66F4560_EVM_V1.0\CODE\HT66F4560_TuYa_FishTank_V1.0\souce\ds18b20.c" 1
 111  0028              	MOV A,(150-( 9 + __PBP__ * 2))/0402h
"File: ds18b20.c     Assembler  Version HGASM0202      Page 20

 111  0028              ;# 111 "E:\Project\17.HT66F4560_EVM_V1.0\CODE\HT66F4560_TuYa_FishTank_V1.0\souce\ds18b20.c" 1
 111  0028              	MOV _builtin_holtek_delay_2,A
 111  0028              ;# 111 "E:\Project\17.HT66F4560_EVM_V1.0\CODE\HT66F4560_TuYa_FishTank_V1.0\souce\ds18b20.c" 1
 111  0028              	MOV A,((150-( 9 + __PBP__ * 2))%0402h)/4+1
 111  0028              ;# 111 "E:\Project\17.HT66F4560_EVM_V1.0\CODE\HT66F4560_TuYa_FishTank_V1.0\souce\ds18b20.c" 1
 111  0028              	fcall __DELAYY3 +3-(((150-( 9 + __PBP__ * 2))%0402h)%4) 
 111  0028              	ENDIF
 112  0028              #line 112 "E:\Project\17.HT66F4560_EVM_V1.0\CODE\HT66F4560_TuYa_FishTank_V1.0\souce\ds18b20.c"
 112  0028  B268 0001   	lset [360].4
 113  002A              #line 113 "E:\Project\17.HT66F4560_EVM_V1.0\CODE\HT66F4560_TuYa_FishTank_V1.0\souce\ds18b20.c"
 113  002A              ;# 113 "E:\Project\17.HT66F4560_EVM_V1.0\CODE\HT66F4560_TuYa_FishTank_V1.0\souce\ds18b20.c" 1
 113  002A              	IF 6>263690
 113  002A              ;# 113 "E:\Project\17.HT66F4560_EVM_V1.0\CODE\HT66F4560_TuYa_FishTank_V1.0\souce\ds18b20.c" 1
 113  002A              	ERRMESSAGE 'the value 6of the argument exceeds the maxinum 263690'
 113  002A              	ENDIF
 113  002A              ;# 113 "E:\Project\17.HT66F4560_EVM_V1.0\CODE\HT66F4560_TuYa_FishTank_V1.0\souce\ds18b20.c" 1
 113  002A              	IF 6<0
 113  002A              ;# 113 "E:\Project\17.HT66F4560_EVM_V1.0\CODE\HT66F4560_TuYa_FishTank_V1.0\souce\ds18b20.c" 1
 113  002A              	ERRMESSAGE 'the value 6 of the argument exceeds the mininum 0'
 113  002A              	ENDIF
 113  002A              ;# 113 "E:\Project\17.HT66F4560_EVM_V1.0\CODE\HT66F4560_TuYa_FishTank_V1.0\souce\ds18b20.c" 1
 113  002A              	IF 6==0
 113  002A              ;# 113 "E:\Project\17.HT66F4560_EVM_V1.0\CODE\HT66F4560_TuYa_FishTank_V1.0\souce\ds18b20.c" 1
 113  002A              	JMP $
 113  002A              	ENDIF
 113  002A              ;# 113 "E:\Project\17.HT66F4560_EVM_V1.0\CODE\HT66F4560_TuYa_FishTank_V1.0\souce\ds18b20.c" 1
 113  002A              	IF (6>=1) AND (6<( 4 + __PBP__ * 2))
 113  002A              ;# 113 "E:\Project\17.HT66F4560_EVM_V1.0\CODE\HT66F4560_TuYa_FishTank_V1.0\souce\ds18b20.c" 1
 113  002A              	NOP
 113  002A              	ENDIF
 113  002A              ;# 113 "E:\Project\17.HT66F4560_EVM_V1.0\CODE\HT66F4560_TuYa_FishTank_V1.0\souce\ds18b20.c" 1
 113  002A              	IF (6>=2) AND (6<( 4 + __PBP__ * 2))
 113  002A              ;# 113 "E:\Project\17.HT66F4560_EVM_V1.0\CODE\HT66F4560_TuYa_FishTank_V1.0\souce\ds18b20.c" 1
 113  002A              	NOP
 113  002A              	ENDIF
 113  002A              ;# 113 "E:\Project\17.HT66F4560_EVM_V1.0\CODE\HT66F4560_TuYa_FishTank_V1.0\souce\ds18b20.c" 1
 113  002A              	IF (6>=3) AND (6<( 4 + __PBP__ * 2))
 113  002A              ;# 113 "E:\Project\17.HT66F4560_EVM_V1.0\CODE\HT66F4560_TuYa_FishTank_V1.0\souce\ds18b20.c" 1
 113  002A              	NOP
 113  002A              	ENDIF
 113  002A              ;# 113 "E:\Project\17.HT66F4560_EVM_V1.0\CODE\HT66F4560_TuYa_FishTank_V1.0\souce\ds18b20.c" 1
 113  002A              	IF (6>=4) AND (6<( 4 + __PBP__ * 2)) AND ( __PBP__ > 0 )
 113  002A              ;# 113 "E:\Project\17.HT66F4560_EVM_V1.0\CODE\HT66F4560_TuYa_FishTank_V1.0\souce\ds18b20.c" 1
 113  002A              	NOP
 113  002A              	ENDIF
 113  002A              ;# 113 "E:\Project\17.HT66F4560_EVM_V1.0\CODE\HT66F4560_TuYa_FishTank_V1.0\souce\ds18b20.c" 1
 113  002A              	IF (6>=5) AND (6<( 4 + __PBP__ * 2)) AND ( __PBP__ > 0 )
 113  002A              ;# 113 "E:\Project\17.HT66F4560_EVM_V1.0\CODE\HT66F4560_TuYa_FishTank_V1.0\souce\ds18b20.c" 1
 113  002A              	NOP
 113  002A              	ENDIF
 113  002A              ;# 113 "E:\Project\17.HT66F4560_EVM_V1.0\CODE\HT66F4560_TuYa_FishTank_V1.0\souce\ds18b20.c" 1
 113  002A              	IF (6>=6) AND (6<( 4 + __PBP__ * 2))  AND ( __PBP__ > 1 )
 113  002A              ;# 113 "E:\Project\17.HT66F4560_EVM_V1.0\CODE\HT66F4560_TuYa_FishTank_V1.0\souce\ds18b20.c" 1
 113  002A              	NOP
 113  002A              	ENDIF
 113  002A              ;# 113 "E:\Project\17.HT66F4560_EVM_V1.0\CODE\HT66F4560_TuYa_FishTank_V1.0\souce\ds18b20.c" 1
 113  002A              	IF (6>=7) AND (6<( 4 + __PBP__ * 2))  AND ( __PBP__ > 1 )
 113  002A              ;# 113 "E:\Project\17.HT66F4560_EVM_V1.0\CODE\HT66F4560_TuYa_FishTank_V1.0\souce\ds18b20.c" 1
 113  002A              	NOP
 113  002A              	ENDIF
"File: ds18b20.c     Assembler  Version HGASM0202      Page 21

 113  002A              ;# 113 "E:\Project\17.HT66F4560_EVM_V1.0\CODE\HT66F4560_TuYa_FishTank_V1.0\souce\ds18b20.c" 1
 113  002A              	IF (6>=8) AND (6<( 4 + __PBP__ * 2))  AND ( __PBP__ > 2 )
 113  002A              ;# 113 "E:\Project\17.HT66F4560_EVM_V1.0\CODE\HT66F4560_TuYa_FishTank_V1.0\souce\ds18b20.c" 1
 113  002A              	NOP
 113  002A              	ENDIF
 113  002A              ;# 113 "E:\Project\17.HT66F4560_EVM_V1.0\CODE\HT66F4560_TuYa_FishTank_V1.0\souce\ds18b20.c" 1
 113  002A              	IF (6==9)  AND ( __PBP__ > 2 )
 113  002A              ;# 113 "E:\Project\17.HT66F4560_EVM_V1.0\CODE\HT66F4560_TuYa_FishTank_V1.0\souce\ds18b20.c" 1
 113  002A              	NOP
 113  002A              	ENDIF
 113  002A              ;# 113 "E:\Project\17.HT66F4560_EVM_V1.0\CODE\HT66F4560_TuYa_FishTank_V1.0\souce\ds18b20.c" 1
 113  002A              	IF (6< ( 8 + __PBP__ * 2)) AND (6>( 3 + __PBP__ * 2))
 113  002A              ;# 113 "E:\Project\17.HT66F4560_EVM_V1.0\CODE\HT66F4560_TuYa_FishTank_V1.0\souce\ds18b20.c" 1
 113  002A              	fcall __DELAY3 + ( 7 + __PBP__ * 2) -6
 113  0031              	ENDIF
 113  0031              ;# 113 "E:\Project\17.HT66F4560_EVM_V1.0\CODE\HT66F4560_TuYa_FishTank_V1.0\souce\ds18b20.c" 1
 113  0031              	IF (6< ( 0404h + __PBP__ * 2)) AND (6>( 7 + __PBP__ * 2))
 113  0031              ;# 113 "E:\Project\17.HT66F4560_EVM_V1.0\CODE\HT66F4560_TuYa_FishTank_V1.0\souce\ds18b20.c" 1
 113  0031              	MOV A,(6-( 4 + __PBP__ * 2))/4
 113  0031              ;# 113 "E:\Project\17.HT66F4560_EVM_V1.0\CODE\HT66F4560_TuYa_FishTank_V1.0\souce\ds18b20.c" 1
 113  0031              	fcall __DELAYX3 + 3 -((6-( 4 + __PBP__ * 2)) MOD 4) 
 113  0031              	ENDIF
 113  0031              ;# 113 "E:\Project\17.HT66F4560_EVM_V1.0\CODE\HT66F4560_TuYa_FishTank_V1.0\souce\ds18b20.c" 1
 113  0031              	IF (6< ( 040bh + __PBP__ * 2)) AND (6> ( 0403h + __PBP__ * 2))
 113  0031              ;# 113 "E:\Project\17.HT66F4560_EVM_V1.0\CODE\HT66F4560_TuYa_FishTank_V1.0\souce\ds18b20.c" 1
 113  0031              	MOV A,0 
 113  0031              ;# 113 "E:\Project\17.HT66F4560_EVM_V1.0\CODE\HT66F4560_TuYa_FishTank_V1.0\souce\ds18b20.c" 1
 113  0031              	fcall __DELAYX6 + ( 040ah + __PBP__ * 2) -6
 113  0031              	ENDIF
 113  0031              ;# 113 "E:\Project\17.HT66F4560_EVM_V1.0\CODE\HT66F4560_TuYa_FishTank_V1.0\souce\ds18b20.c" 1
 113  0031              	IF (6 >= ( 040bh + __PBP__ * 2)) AND ((((6-( 9 + __PBP__ * 2))%0402h)/4+1)>256)
 113  0031              ;# 113 "E:\Project\17.HT66F4560_EVM_V1.0\CODE\HT66F4560_TuYa_FishTank_V1.0\souce\ds18b20.c" 1
 113  0031              	MOV A,(6-( 9 + __PBP__ * 2))/0402h
 113  0031              ;# 113 "E:\Project\17.HT66F4560_EVM_V1.0\CODE\HT66F4560_TuYa_FishTank_V1.0\souce\ds18b20.c" 1
 113  0031              	MOV _builtin_holtek_delay_2,A
 113  0031              ;# 113 "E:\Project\17.HT66F4560_EVM_V1.0\CODE\HT66F4560_TuYa_FishTank_V1.0\souce\ds18b20.c" 1
 113  0031              	MOV A,0
 113  0031              ;# 113 "E:\Project\17.HT66F4560_EVM_V1.0\CODE\HT66F4560_TuYa_FishTank_V1.0\souce\ds18b20.c" 1
 113  0031              	fcall __DELAYY5 +5- (((6-( 9 + __PBP__ * 2))%0402h)%6) 
 113  0031              	ENDIF
 113  0031              ;# 113 "E:\Project\17.HT66F4560_EVM_V1.0\CODE\HT66F4560_TuYa_FishTank_V1.0\souce\ds18b20.c" 1
 113  0031              	IF (6 >= ( 040bh + __PBP__ * 2)) AND ((((6-( 9 + __PBP__ * 2))%0402h)/4+1)<=256)
 113  0031              ;# 113 "E:\Project\17.HT66F4560_EVM_V1.0\CODE\HT66F4560_TuYa_FishTank_V1.0\souce\ds18b20.c" 1
 113  0031              	MOV A,(6-( 9 + __PBP__ * 2))/0402h
 113  0031              ;# 113 "E:\Project\17.HT66F4560_EVM_V1.0\CODE\HT66F4560_TuYa_FishTank_V1.0\souce\ds18b20.c" 1
 113  0031              	MOV _builtin_holtek_delay_2,A
 113  0031              ;# 113 "E:\Project\17.HT66F4560_EVM_V1.0\CODE\HT66F4560_TuYa_FishTank_V1.0\souce\ds18b20.c" 1
 113  0031              	MOV A,((6-( 9 + __PBP__ * 2))%0402h)/4+1
 113  0031              ;# 113 "E:\Project\17.HT66F4560_EVM_V1.0\CODE\HT66F4560_TuYa_FishTank_V1.0\souce\ds18b20.c" 1
 113  0031              	fcall __DELAYY3 +3-(((6-( 9 + __PBP__ * 2))%0402h)%4) 
 113  0031              	ENDIF
 113  0031              _L23:
 113  0031  1780     E  	sdz ra
 113  0032  2800     R  	jmp _L25
 113  0033  0003        	ret
 113  0034              _DS18B20_Write_Byte endp
 113  0034              #line 113 "E:\Project\17.HT66F4560_EVM_V1.0\CODE\HT66F4560_TuYa_FishTank_V1.0\souce\ds18b20.c"
 113  0034              #pragma debug scope 1 1
 113  0034              public _DS18B20_Start
 113  0034              #pragma debug scope 7 1
"File: ds18b20.c     Assembler  Version HGASM0202      Page 22

 119  0034              #line 119 "E:\Project\17.HT66F4560_EVM_V1.0\CODE\HT66F4560_TuYa_FishTank_V1.0\souce\ds18b20.c"
 119  0000              _DS18B20_Start .section 'code'
 119  0000              _DS18B20_Start proc
 120  0000              #line 120 "E:\Project\17.HT66F4560_EVM_V1.0\CODE\HT66F4560_TuYa_FishTank_V1.0\souce\ds18b20.c"
 120  0000              	fcall _DS18B20_Rst
 121  0007              #line 121 "E:\Project\17.HT66F4560_EVM_V1.0\CODE\HT66F4560_TuYa_FishTank_V1.0\souce\ds18b20.c"
 121  0007              	fcall _DS18B20_Check
 123  000E              #line 123 "E:\Project\17.HT66F4560_EVM_V1.0\CODE\HT66F4560_TuYa_FishTank_V1.0\souce\ds18b20.c"
 123  000E  0FCC        	mov a,204
 123  000F              	fcall _DS18B20_Write_Byte
 124  0016              #line 124 "E:\Project\17.HT66F4560_EVM_V1.0\CODE\HT66F4560_TuYa_FishTank_V1.0\souce\ds18b20.c"
 124  0016  0F44        	mov a,68
 124  0017              	fcall _DS18B20_Write_Byte
 124  001E  0003        	ret
 124  001F              _DS18B20_Start endp
 124  001F              #line 124 "E:\Project\17.HT66F4560_EVM_V1.0\CODE\HT66F4560_TuYa_FishTank_V1.0\souce\ds18b20.c"
 124  001F              #pragma debug scope 1 1
 124  001F              ___intc0 equ [75]
 124  001F              public _DS18B20_Get_Temp
 124  001F              #pragma debug scope 8 1
 131  001F              #line 131 "E:\Project\17.HT66F4560_EVM_V1.0\CODE\HT66F4560_TuYa_FishTank_V1.0\souce\ds18b20.c"
 131  0000              _DS18B20_Get_Temp .section 'code'
 131  0000              _DS18B20_Get_Temp proc
 131  0000  00              local _DS18B20_Get_Temp_2 db 1 dup(?)	; 0,1
 131  0001              #pragma debug variable 8 8 _DS18B20_Get_Temp_2+0 "TL"
 135  0001              #line 135 "E:\Project\17.HT66F4560_EVM_V1.0\CODE\HT66F4560_TuYa_FishTank_V1.0\souce\ds18b20.c"
 135  0000              	fcall _DS18B20_Start
 136  0007              #line 136 "E:\Project\17.HT66F4560_EVM_V1.0\CODE\HT66F4560_TuYa_FishTank_V1.0\souce\ds18b20.c"
 136  0007              	fcall _DS18B20_Rst
 137  000E              #line 137 "E:\Project\17.HT66F4560_EVM_V1.0\CODE\HT66F4560_TuYa_FishTank_V1.0\souce\ds18b20.c"
 137  000E              	fcall _DS18B20_Check
 138  0015              #line 138 "E:\Project\17.HT66F4560_EVM_V1.0\CODE\HT66F4560_TuYa_FishTank_V1.0\souce\ds18b20.c"
 138  0015  0FCC        	mov a,204
 138  0016              	fcall _DS18B20_Write_Byte
 139  001D              #line 139 "E:\Project\17.HT66F4560_EVM_V1.0\CODE\HT66F4560_TuYa_FishTank_V1.0\souce\ds18b20.c"
 139  001D  0FBE        	mov a,190
 139  001E              	fcall _DS18B20_Write_Byte
 140  0025              #line 140 "E:\Project\17.HT66F4560_EVM_V1.0\CODE\HT66F4560_TuYa_FishTank_V1.0\souce\ds18b20.c"
 140  0025              	fcall _DS18B20_Read_Byte
 140  002C  0080     R  	mov _DS18B20_Get_Temp_2[0],a
 141  002D              #line 141 "E:\Project\17.HT66F4560_EVM_V1.0\CODE\HT66F4560_TuYa_FishTank_V1.0\souce\ds18b20.c"
 141  002D              	fcall _DS18B20_Read_Byte
 141  0034  0080     E  	mov rb,a
 142  0035              #line 142 "E:\Project\17.HT66F4560_EVM_V1.0\CODE\HT66F4560_TuYa_FishTank_V1.0\souce\ds18b20.c"
 142  0035  304B        	set [75].0
 143  0036              #line 143 "E:\Project\17.HT66F4560_EVM_V1.0\CODE\HT66F4560_TuYa_FishTank_V1.0\souce\ds18b20.c"
 143  0036  0F07        	mov a,7
 143  0037  0200     E  	sub a,rb
 143  0038  3C0A        	sz c
 143  0039  2800     R  	jmp _L30
 145  003A              #line 145 "E:\Project\17.HT66F4560_EVM_V1.0\CODE\HT66F4560_TuYa_FishTank_V1.0\souce\ds18b20.c"
 145  003A  0100     E  	cpla rb
 145  003B  0080     E  	mov rb,a
 146  003C              #line 146 "E:\Project\17.HT66F4560_EVM_V1.0\CODE\HT66F4560_TuYa_FishTank_V1.0\souce\ds18b20.c"
 146  003C  0100     R  	cpla _DS18B20_Get_Temp_2[0]
 146  003D  0080     R  	mov _DS18B20_Get_Temp_2[0],a
 147  003E              #line 147 "E:\Project\17.HT66F4560_EVM_V1.0\CODE\HT66F4560_TuYa_FishTank_V1.0\souce\ds18b20.c"
 147  003E  1F00     E  	clr ra
 147  003F  2800     R  	jmp _L28
 147  0040              _L30:
"File: ds18b20.c     Assembler  Version HGASM0202      Page 23

 148  0040              #line 148 "E:\Project\17.HT66F4560_EVM_V1.0\CODE\HT66F4560_TuYa_FishTank_V1.0\souce\ds18b20.c"
 148  0040  0F01        	mov a,1
 148  0041  0080     E  	mov ra,a
 148  0042              _L28:
 150  0042              #line 150 "E:\Project\17.HT66F4560_EVM_V1.0\CODE\HT66F4560_TuYa_FishTank_V1.0\souce\ds18b20.c"
 150  0042  0700     E  	mov a,rb
 150  0043  0080     E  	mov re,a
 150  0044  1F00     E  	clr rd
 151  0045              #line 151 "E:\Project\17.HT66F4560_EVM_V1.0\CODE\HT66F4560_TuYa_FishTank_V1.0\souce\ds18b20.c"
 151  0045  0700     R  	mov a,_DS18B20_Get_Temp_2[0]
 151  0046  0380     E  	addm a,rd
 151  0047  3C0A        	sz c
 151  0048  1480     E  	inc re
 152  0049              #line 152 "E:\Project\17.HT66F4560_EVM_V1.0\CODE\HT66F4560_TuYa_FishTank_V1.0\souce\ds18b20.c"
 152  0049  0700     E  	mov a,re
 152  004A  0080     E  	mov _builtin_holtek_mant1[1],a
 152  004B  0700     E  	mov a,rd
 152  004C  0080     E  	mov _builtin_holtek_mant1[0],a
 152  004D              	fcall _builtin_holtek_itod
 152  0054  0700     E  	mov a,_builtin_holtek_mant12p[0]
 152  0055  0080     E  	mov rg,a
 152  0056  0700     E  	mov a,_builtin_holtek_mant1[2]
 152  0057  0080     E  	mov rf,a
 152  0058  0700     E  	mov a,_builtin_holtek_mant1[1]
 152  0059  0080     E  	mov re,a
 152  005A  0700     E  	mov a,_builtin_holtek_mant1[0]
 152  005B  0080     E  	mov rd,a
 152  005C  0700     E  	mov a,rg
 152  005D  0080     E  	mov _builtin_holtek_mant12p[0],a
 152  005E  0700     E  	mov a,rf
 152  005F  0080     E  	mov _builtin_holtek_mant1[2],a
 152  0060  0700     E  	mov a,re
 152  0061  0080     E  	mov _builtin_holtek_mant1[1],a
 152  0062  0700     E  	mov a,rd
 152  0063  0080     E  	mov _builtin_holtek_mant1[0],a
 152  0064  0F42        	mov a,66
 152  0065  0080     E  	mov _builtin_holtek_mant12p[1],a
 152  0066  0F7A        	mov a,122
 152  0067  0080     E  	mov _builtin_holtek_mant2[2],a
 152  0068  0F00        	mov a,0
 152  0069  0080     E  	mov _builtin_holtek_mant2[1],a
 152  006A  0F00        	mov a,0
 152  006B  0080     E  	mov _builtin_holtek_mant2[0],a
 152  006C              	fcall _builtin_holtek_dtmul
 152  0073  0700     E  	mov a,_builtin_holtek_mant12p[0]
 152  0074  0080     E  	mov rg,a
 152  0075  0700     E  	mov a,_builtin_holtek_mant1[2]
 152  0076  0080     E  	mov rf,a
 152  0077  0700     E  	mov a,_builtin_holtek_mant1[1]
 152  0078  0080     E  	mov re,a
 152  0079  0700     E  	mov a,_builtin_holtek_mant1[0]
 152  007A  0080     E  	mov rd,a
 152  007B  0700     E  	mov a,rg
 152  007C  0080     E  	mov _builtin_holtek_mant12p[0],a
 152  007D  0700     E  	mov a,rf
 152  007E  0080     E  	mov _builtin_holtek_mant1[2],a
 152  007F  0700     E  	mov a,re
 152  0080  0080     E  	mov _builtin_holtek_mant1[1],a
 152  0081  0700     E  	mov a,rd
 152  0082  0080     E  	mov _builtin_holtek_mant1[0],a
"File: ds18b20.c     Assembler  Version HGASM0202      Page 24

 152  0083              	fcall _builtin_holtek_dtol
 152  008A  0700     E  	mov a,_builtin_holtek_mant12p[0]
 152  008B  0080     E  	mov rg,a
 152  008C  0700     E  	mov a,_builtin_holtek_mant1[2]
 152  008D  0080     E  	mov rf,a
 152  008E  0700     E  	mov a,_builtin_holtek_mant1[1]
 152  008F  0080     E  	mov re,a
 152  0090  0700     E  	mov a,_builtin_holtek_mant1[0]
 152  0091  0080     E  	mov rd,a
 152  0092  0700     E  	mov a,rd
 152  0093  0080     E  	mov rb,a
 152  0094  0700     E  	mov a,re
 152  0095  0080     E  	mov rc,a
 154  0096              #line 154 "E:\Project\17.HT66F4560_EVM_V1.0\CODE\HT66F4560_TuYa_FishTank_V1.0\souce\ds18b20.c"
 154  0096  1080     E  	sz ra
 154  0097  2800     R  	jmp _L31
 157  0098              #line 157 "E:\Project\17.HT66F4560_EVM_V1.0\CODE\HT66F4560_TuYa_FishTank_V1.0\souce\ds18b20.c"
 157  0098  0F00        	mov a,0
 157  0099  0200     E  	sub a,rb
 157  009A  0080     E  	mov rd,a
 157  009B  0F00        	mov a,0
 157  009C  1200     E  	sbc a,rc
 157  009D  0080     E  	mov re,a
 157  009E              _L31:
 155  009E              #line 155 "E:\Project\17.HT66F4560_EVM_V1.0\CODE\HT66F4560_TuYa_FishTank_V1.0\souce\ds18b20.c"
 155  009E  0700     E  	mov a,rd
 155  009F  0080     E  	mov ra,a
 155  00A0  0700     E  	mov a,re
 155  00A1  0080     E  	mov rb,a
 155  00A2  0003        	ret
 155  00A3              _DS18B20_Get_Temp endp
 155  00A3              #line 155 "E:\Project\17.HT66F4560_EVM_V1.0\CODE\HT66F4560_TuYa_FishTank_V1.0\souce\ds18b20.c"
 155  00A3              #pragma debug scope 1 1
 155  00A3              #pragma debug struct_end
 155  00A3              #pragma debug struct_end
 155  00A3              #pragma debug union_end
 155  00A3              #pragma debug union_end
 155  00A3              #pragma debug variable 43 1 ___intc0 "__intc0" 1
 155  00A3              #pragma debug struct_end
 155  00A3              #pragma debug struct_end
 155  00A3              #pragma debug union_end
 155  00A3              #pragma debug union_end
 155  00A3              #pragma debug variable 45 1 ___pe "__pe" 1
 155  00A3              #pragma debug struct_end
 155  00A3              #pragma debug struct_end
 155  00A3              #pragma debug union_end
 155  00A3              #pragma debug union_end
 155  00A3              #pragma debug variable 47 1 ___pec "__pec" 1
 155  00A3              extern _builtin_holtek_mant1:byte
 155  00A3              extern _builtin_holtek_mant12p:byte
 155  00A3              extern _builtin_holtek_itod:near
 155  00A3              extern _builtin_holtek_mant2:byte
 155  00A3              extern _builtin_holtek_dtmul:near
 155  00A3              extern _builtin_holtek_dtol:near
 155  00A3              
 155  00A3              ; 
 155  00A3              ; Generated by holtek-gcc v3.19, Thu Mar 25 17:35:55 2021
 155  00A3              ; Rebuild 718
 155  00A3              ; end of file

"File: ds18b20.c     Assembler  Version HGASM0202      Page 25


        0 Errors, 0