"File: mcu_api.c     Assembler  Version HGASM0202      Page 1


   1  0000              ; Generated by holtek-gcc v3.19, Thu Mar 25 17:35:59 2021
   2  0000              ; 
   3  0000              ; Configuration:
   4  0000              ;       with long instruction
   5  0000              ;       Multi-ROM, Multi-RAM
   6  0000              ;       bits_per_rom_unit:16
   7  0000              ;       with mp1
   8  0000              ;       with tbhp, address(0x9)
   9  0000              ;          Use tabrd-const
  10  0000              ;       
  11  0000              ; SFR address of long-instruction arch:
  12  0000              ;    mp0 = -1,1,0
  13  0000              ;    mp1 = 4,3,2
  14  0000              ;    mp2 = 14,13,12
  15  0000              ;    tbp = 9,7,8
  16  0000              ;    acc = 5
  17  0000              ;    pcl = 6
  18  0000              ;    status = 10
  19  0000              ;    bp = 11
  20  0000              ;    intc = 75
  21  0000              ;       
  22  0000              ;       
  23  0000              ; use 'tabrdc' instead of 'tabrd'
  24  0000              ;       
  25  0000              
  26  0000              #pragma translator "holtek-gcc 4.6.4" "3.19" "build 20130711"
  27  0000              ; Rebuild 718
  28  0000              
  29  0000              ir equ [2]
  30  0000              mp equ [3]
  31  0000              sbp equ [4]
  32  0000              acc equ [5]
  33  0000              bp equ [11]
  34  0000              tblp equ [7]
  35  0000              tbhp equ [9]
  36  0000              status equ [10]
  37  0000              c equ [10].0
  38  0000              ac equ [10].1
  39  0000              z equ [10].2
  40  0000              ov equ [10].3
  41  0000              cz equ [10].6
  42  0000              sc equ [10].7
  43  0000              intc equ [75]
  44  0000              
  45  0000              extern ra:byte
  46  0000              extern rb:byte
  47  0000              extern rc:byte
  48  0000              extern rd:byte
  49  0000              extern re:byte
  50  0000              extern rf:byte
  51  0000              extern rg:byte
  52  0000              extern rh:byte
  53  0000              extern _Crom2Prom:near
  54  0000              extern _Crom2PromNext:near
  55  0000              
  56  0000              RAMBANK 0 @BITDATASEC, @BITDATASEC1
  57  0000              @HCCINIT	.section 'data'
  58  0000              @HCCINIT0	.section 'data'
  59  0000              @BITDATASEC	 .section 'data'
"File: mcu_api.ASM   Assembler  Version HGASM0202      Page 2

  60  0000              @BITDATASEC1	 .section 'data'
  61  0000              
  62  0000              #pragma debug scope 1 1
  63  0000              public _hex_to_bcd
  64  0000              #pragma debug scope 2 1

  31  0000              #line 31 "E:\Project\17.HT66F4560_EVM_V1.0\CODE\HT66F4560_TuYa_FishTank_V1.0\mcu_sdk\mcu_api.c"
  31  0000              _hex_to_bcd .section 'code'
  31  0000              _hex_to_bcd proc
  31  0000              public _hex_to_bcd_2
  31  0000  0002[           local _hex_to_bcd_2 db 2 dup(?)	; 1,1
            00
            ]
  31  0000  0080     E  	mov ra,a
  31  0001  0080     R  	mov _hex_to_bcd_2[1],a
  31  0002              #pragma debug variable 8 2 _hex_to_bcd_2+1 "Value_H"
  31  0002              #pragma debug variable 8 2 _hex_to_bcd_2+0 "Value_L"
  34  0002              #line 34 "E:\Project\17.HT66F4560_EVM_V1.0\CODE\HT66F4560_TuYa_FishTank_V1.0\mcu_sdk\mcu_api.c"
  34  0002  0FD0        	mov a,208
  34  0003  0380     E  	addm a,ra
  34  0004  0F09        	mov a,9
  34  0005  0200     E  	sub a,ra
  34  0006  380A        	snz c
  34  0007  2800     R  	jmp _L2
  35  0008              #line 35 "E:\Project\17.HT66F4560_EVM_V1.0\CODE\HT66F4560_TuYa_FishTank_V1.0\mcu_sdk\mcu_api.c"
  35  0008  0700     E  	mov a,ra
  35  0009  0080     R  	mov _hex_to_bcd_2[1],a
  35  000A  2800     R  	jmp _L3
  35  000B              _L2:
  36  000B              #line 36 "E:\Project\17.HT66F4560_EVM_V1.0\CODE\HT66F4560_TuYa_FishTank_V1.0\mcu_sdk\mcu_api.c"
  36  000B  0700     R  	mov a,_hex_to_bcd_2[1]
  36  000C  0BBF        	add a,191
  36  000D  0080     E  	mov ra,a
  36  000E  0F05        	mov a,5
  36  000F  0200     E  	sub a,ra
  36  0010  380A        	snz c
  36  0011  2800     R  	jmp _L4
  37  0012              #line 37 "E:\Project\17.HT66F4560_EVM_V1.0\CODE\HT66F4560_TuYa_FishTank_V1.0\mcu_sdk\mcu_api.c"
  37  0012  0FC9        	mov a,201
  37  0013  0380     R  	addm a,_hex_to_bcd_2[1]
  37  0014  2800     R  	jmp _L3
  37  0015              _L4:
  38  0015              #line 38 "E:\Project\17.HT66F4560_EVM_V1.0\CODE\HT66F4560_TuYa_FishTank_V1.0\mcu_sdk\mcu_api.c"
  38  0015  0700     R  	mov a,_hex_to_bcd_2[1]
  38  0016  0B9F        	add a,159
  38  0017  0080     E  	mov ra,a
  38  0018  0F05        	mov a,5
  38  0019  0200     E  	sub a,ra
  38  001A  380A        	snz c
  38  001B  2800     R  	jmp _L3
  39  001C              #line 39 "E:\Project\17.HT66F4560_EVM_V1.0\CODE\HT66F4560_TuYa_FishTank_V1.0\mcu_sdk\mcu_api.c"
  39  001C  0FA9        	mov a,169
  39  001D  0380     R  	addm a,_hex_to_bcd_2[1]
  39  001E              _L3:
  43  001E              #line 43 "E:\Project\17.HT66F4560_EVM_V1.0\CODE\HT66F4560_TuYa_FishTank_V1.0\mcu_sdk\mcu_api.c"
  43  001E  0700     R  	mov a,_hex_to_bcd_2[1]
  43  001F  0080     E  	mov rb,a
  43  0020  1100     E  	swapa rb
  43  0021  0EF0        	and a,0f0h 
  43  0022  0080     E  	mov rb,a
"File: mcu_api.c     Assembler  Version HGASM0202      Page 3

  44  0023              #line 44 "E:\Project\17.HT66F4560_EVM_V1.0\CODE\HT66F4560_TuYa_FishTank_V1.0\mcu_sdk\mcu_api.c"
  44  0023  0700     R  	mov a,_hex_to_bcd_2[0]
  44  0024  0BD0        	add a,208
  44  0025  0080     E  	mov ra,a
  44  0026  0F09        	mov a,9
  44  0027  0200     E  	sub a,ra
  44  0028  380A        	snz c
  44  0029  2800     R  	jmp _L5
  45  002A              #line 45 "E:\Project\17.HT66F4560_EVM_V1.0\CODE\HT66F4560_TuYa_FishTank_V1.0\mcu_sdk\mcu_api.c"
  45  002A  0700     E  	mov a,ra
  45  002B  0080     R  	mov _hex_to_bcd_2[0],a
  45  002C  2800     R  	jmp _L6
  45  002D              _L5:
  46  002D              #line 46 "E:\Project\17.HT66F4560_EVM_V1.0\CODE\HT66F4560_TuYa_FishTank_V1.0\mcu_sdk\mcu_api.c"
  46  002D  0700     R  	mov a,_hex_to_bcd_2[0]
  46  002E  0080     E  	mov ra,a
  46  002F  3400     E  	clr ra.5
  46  0030  0FBF        	mov a,191
  46  0031  0380     E  	addm a,ra
  46  0032  0F05        	mov a,5
  46  0033  0200     E  	sub a,ra
  46  0034  380A        	snz c
  46  0035  2800     R  	jmp _L6
  47  0036              #line 47 "E:\Project\17.HT66F4560_EVM_V1.0\CODE\HT66F4560_TuYa_FishTank_V1.0\mcu_sdk\mcu_api.c"
  47  0036  0FA9        	mov a,169
  47  0037  0380     R  	addm a,_hex_to_bcd_2[0]
  47  0038              _L6:
  51  0038              #line 51 "E:\Project\17.HT66F4560_EVM_V1.0\CODE\HT66F4560_TuYa_FishTank_V1.0\mcu_sdk\mcu_api.c"
  51  0038  0700     R  	mov a,_hex_to_bcd_2[0]
  51  0039  0E0F        	and a,15
  51  003A  0080     E  	mov ra,a
  51  003B  0700     E  	mov a,rb
  51  003C  0580     E  	orm a,ra
  54  003D              #line 54 "E:\Project\17.HT66F4560_EVM_V1.0\CODE\HT66F4560_TuYa_FishTank_V1.0\mcu_sdk\mcu_api.c"
  54  003D  0700     E  	mov a,ra
  54  003E  0003        	ret
  54  003F              _hex_to_bcd endp
  54  003F              #line 54 "E:\Project\17.HT66F4560_EVM_V1.0\CODE\HT66F4560_TuYa_FishTank_V1.0\mcu_sdk\mcu_api.c"
  54  003F              #pragma debug scope 1 1
  54  003F              public _my_strlen
  54  003F              #pragma debug scope 3 1
  62  003F              #line 62 "E:\Project\17.HT66F4560_EVM_V1.0\CODE\HT66F4560_TuYa_FishTank_V1.0\mcu_sdk\mcu_api.c"
  62  0000              _my_strlen .section 'code'
  62  0000              _my_strlen proc
  62  0000              public _my_strlen_2
  62  0000  0002[           local _my_strlen_2 db 2 dup(?)	; 2,0
            00
            ]
  62  0002              #pragma debug pointer 42 8 3
  62  0002              #pragma debug pointer 42 8 3
  62  0002              #pragma debug variable 42 3 _my_strlen_2+0 "str"
  64  0002              #line 64 "E:\Project\17.HT66F4560_EVM_V1.0\CODE\HT66F4560_TuYa_FishTank_V1.0\mcu_sdk\mcu_api.c"
  64  0000  0700     R  	mov a,_my_strlen_2[0]
  64  0001  0500     R  	or a,_my_strlen_2[1]
  64  0002  3D0A        	sz z
  64  0003  2800     R  	jmp _L12
  64  0004  0700     R  	mov a,_my_strlen_2[0]
  64  0005  0080     E  	mov rb,a
  64  0006  0700     R  	mov a,_my_strlen_2[1]
  64  0007  0080     E  	mov rc,a
"File: mcu_api.c     Assembler  Version HGASM0202      Page 4

  64  0008              #line 64 "E:\Project\17.HT66F4560_EVM_V1.0\CODE\HT66F4560_TuYa_FishTank_V1.0\mcu_sdk\mcu_api.c"
  64  0008  1F00     E  	clr rd
  64  0009  1F00     E  	clr re
  64  000A  1F00     E  	clr rf
  64  000B  1F00     E  	clr rg
  64  000C              _L10:
  64  000C  1480     E  	inc rb
  64  000D  3D0A        	sz z
  64  000E  1480     E  	inc rc
  68  000F              #line 68 "E:\Project\17.HT66F4560_EVM_V1.0\CODE\HT66F4560_TuYa_FishTank_V1.0\mcu_sdk\mcu_api.c"
  68  000F  0FFF        	mov a,255
  68  0010  0300     E  	add a,rb
  68  0011  0083        	mov mp,a
  68  0012  0FFF        	mov a,255
  68  0013  1300     E  	adc a,rc
  68  0014  0084        	mov sbp,a
  68  0015              	fcall _Crom2Prom
  68  001C  0080     E  	mov ra,a
  68  001D  1E00     E  	snz ra
  68  001E  2800     R  	jmp _L13
  69  001F              #line 69 "E:\Project\17.HT66F4560_EVM_V1.0\CODE\HT66F4560_TuYa_FishTank_V1.0\mcu_sdk\mcu_api.c"
  69  001F  0F01        	mov a,1
  69  0020  0380     E  	addm a,rd
  69  0021  0F00        	mov a,0
  69  0022  1380     E  	adcm a,re
  69  0023  1380     E  	adcm a,rf
  69  0024  1380     E  	adcm a,rg
  69  0025  2800     R  	jmp _L10
  69  0026              _L13:
  69  0026  0700     E  	mov a,rd
  69  0027  0080     E  	mov ra,a
  69  0028  0700     E  	mov a,re
  69  0029  0080     E  	mov rb,a
  69  002A  0700     E  	mov a,rf
  69  002B  0080     E  	mov rc,a
  69  002C  0700     E  	mov a,rg
  69  002D  0080     E  	mov rd,a
  69  002E  2800     R  	jmp _L9
  69  002F              _L12:
  65  002F              #line 65 "E:\Project\17.HT66F4560_EVM_V1.0\CODE\HT66F4560_TuYa_FishTank_V1.0\mcu_sdk\mcu_api.c"
  65  002F  1F00     E  	clr ra
  65  0030  1F00     E  	clr rb
  65  0031  1F00     E  	clr rc
  65  0032  1F00     E  	clr rd
  65  0033              _L9:
  65  0033  0003        	ret
  65  0034              _my_strlen endp
  65  0034              #line 65 "E:\Project\17.HT66F4560_EVM_V1.0\CODE\HT66F4560_TuYa_FishTank_V1.0\mcu_sdk\mcu_api.c"
  65  0034              #pragma debug scope 1 1
  65  0034              public _my_memset
  65  0034              #pragma debug scope 4 1
  83  0034              #line 83 "E:\Project\17.HT66F4560_EVM_V1.0\CODE\HT66F4560_TuYa_FishTank_V1.0\mcu_sdk\mcu_api.c"
  83  0000              _my_memset .section 'code'
  83  0000              _my_memset proc
  83  0000              public _my_memset_2
  83  0000  0005[           local _my_memset_2 db 5 dup(?)	; 5,0
            00
            ]
  83  0005              #pragma debug pointer 43 7 4
  83  0005              #pragma debug pointer 43 7 4
"File: mcu_api.c     Assembler  Version HGASM0202      Page 5

  83  0005              #pragma debug variable 43 4 _my_memset_2+0 "src"
  83  0005              #pragma debug variable 8 4 _my_memset_2+2 "ch"
  83  0005              #pragma debug variable 10 4 _my_memset_2+3 "count"
  86  0005              #line 86 "E:\Project\17.HT66F4560_EVM_V1.0\CODE\HT66F4560_TuYa_FishTank_V1.0\mcu_sdk\mcu_api.c"
  86  0000  0700     R  	mov a,_my_memset_2[0]
  86  0001  0500     R  	or a,_my_memset_2[1]
  86  0002  3D0A        	sz z
  86  0003  2800     R  	jmp _L18
  86  0004  0700     R  	mov a,_my_memset_2[0]
  86  0005  0080     E  	mov rb,a
  86  0006  0700     R  	mov a,_my_memset_2[1]
  86  0007  0080     E  	mov rc,a
  86  0008  0700     R  	mov a,_my_memset_2[3]
  86  0009  0300     E  	add a,rb
  86  000A  0080     E  	mov rd,a
  86  000B  0700     R  	mov a,_my_memset_2[4]
  86  000C  1300     E  	adc a,rc
  86  000D  0080     E  	mov re,a
  86  000E              _L16:
  90  000E              #line 90 "E:\Project\17.HT66F4560_EVM_V1.0\CODE\HT66F4560_TuYa_FishTank_V1.0\mcu_sdk\mcu_api.c"
  90  000E  0700     E  	mov a,rb
  90  000F  0200     E  	sub a,rd
  90  0010  0700     E  	mov a,rc
  90  0011  1200     E  	sbc a,re
  90  0012  3F0A        	sz cz
  90  0013  2800     R  	jmp _L19
  91  0014              #line 91 "E:\Project\17.HT66F4560_EVM_V1.0\CODE\HT66F4560_TuYa_FishTank_V1.0\mcu_sdk\mcu_api.c"
  91  0014  0700     E  	mov a,rb
  91  0015  0083        	mov mp,a
  91  0016  0700     E  	mov a,rc
  91  0017  0084        	mov sbp,a
  91  0018  0700     R  	mov a,_my_memset_2[2]
  91  0019  0082        	mov ir,a
  91  001A  1480     E  	inc rb
  91  001B  3D0A        	sz z
  91  001C  1480     E  	inc rc
  91  001D  2800     R  	jmp _L16
  91  001E              _L19:
  91  001E  0700     R  	mov a,_my_memset_2[0]
  91  001F  0080     E  	mov ra,a
  91  0020  0700     R  	mov a,_my_memset_2[1]
  91  0021  0080     E  	mov rb,a
  91  0022  2800     R  	jmp _L15
  91  0023              _L18:
  87  0023              #line 87 "E:\Project\17.HT66F4560_EVM_V1.0\CODE\HT66F4560_TuYa_FishTank_V1.0\mcu_sdk\mcu_api.c"
  87  0023  1F00     E  	clr ra
  87  0024  1F00     E  	clr rb
  87  0025              _L15:
  87  0025  0003        	ret
  87  0026              _my_memset endp
  87  0026              #line 87 "E:\Project\17.HT66F4560_EVM_V1.0\CODE\HT66F4560_TuYa_FishTank_V1.0\mcu_sdk\mcu_api.c"
  87  0026              #pragma debug scope 1 1
  87  0026              public _my_memcpy
  87  0026              #pragma debug scope 5 1
 105  0026              #line 105 "E:\Project\17.HT66F4560_EVM_V1.0\CODE\HT66F4560_TuYa_FishTank_V1.0\mcu_sdk\mcu_api.c"
 105  0000              _my_memcpy .section 'code'
 105  0000              _my_memcpy proc
 105  0000              public _my_memcpy_2
 105  0000  0006[           local _my_memcpy_2 db 6 dup(?)	; 6,0
            00
"File: mcu_api.c     Assembler  Version HGASM0202      Page 6

            ]
 105  0006              #pragma debug pointer 44 7 5
 105  0006              #pragma debug pointer 44 7 5
 105  0006              #pragma debug variable 44 5 _my_memcpy_2+0 "dest"
 105  0006              #pragma debug pointer 45 7 5
 105  0006              #pragma debug pointer 45 7 5
 105  0006              #pragma debug variable 45 5 _my_memcpy_2+2 "src"
 105  0006              #pragma debug variable 10 5 _my_memcpy_2+4 "count"
 110  0006              #line 110 "E:\Project\17.HT66F4560_EVM_V1.0\CODE\HT66F4560_TuYa_FishTank_V1.0\mcu_sdk\mcu_api.c"
 110  0000  0700     R  	mov a,_my_memcpy_2[0]
 110  0001  0500     R  	or a,_my_memcpy_2[1]
 110  0002  3D0A        	sz z
 110  0003  2800     R  	jmp _L29
 110  0004              #line 110 "E:\Project\17.HT66F4560_EVM_V1.0\CODE\HT66F4560_TuYa_FishTank_V1.0\mcu_sdk\mcu_api.c"
 110  0004  0700     R  	mov a,_my_memcpy_2[2]
 110  0005  0500     R  	or a,_my_memcpy_2[3]
 110  0006  3D0A        	sz z
 110  0007  2800     R  	jmp _L29
 114  0008              #line 114 "E:\Project\17.HT66F4560_EVM_V1.0\CODE\HT66F4560_TuYa_FishTank_V1.0\mcu_sdk\mcu_api.c"
 114  0008  0700     R  	mov a,_my_memcpy_2[2]
 114  0009  0200     R  	sub a,_my_memcpy_2[0]
 114  000A  0700     R  	mov a,_my_memcpy_2[3]
 114  000B  1200     R  	sbc a,_my_memcpy_2[1]
 114  000C  3C0A        	sz c
 114  000D  2800     R  	jmp _L22
 114  000E  0700     R  	mov a,_my_memcpy_2[4]
 114  000F  0300     R  	add a,_my_memcpy_2[2]
 114  0010  0080     E  	mov rb,a
 114  0011  0700     R  	mov a,_my_memcpy_2[5]
 114  0012  1300     R  	adc a,_my_memcpy_2[3]
 114  0013  0080     E  	mov rc,a
 114  0014  0700     E  	mov a,rb
 114  0015  0200     R  	sub a,_my_memcpy_2[0]
 114  0016  0700     E  	mov a,rc
 114  0017  1200     R  	sbc a,_my_memcpy_2[1]
 114  0018  3C0A        	sz c
 114  0019  2800     R  	jmp _L23
 114  001A              _L22:
 105  001A              #line 105 "E:\Project\17.HT66F4560_EVM_V1.0\CODE\HT66F4560_TuYa_FishTank_V1.0\mcu_sdk\mcu_api.c"
 105  001A  1F00     E  	clr rb
 105  001B  1F00     E  	clr rc
 105  001C              _L24:
 115  001C              #line 115 "E:\Project\17.HT66F4560_EVM_V1.0\CODE\HT66F4560_TuYa_FishTank_V1.0\mcu_sdk\mcu_api.c"
 115  001C  0700     E  	mov a,rb
 115  001D  0200     R  	sub a,_my_memcpy_2[4]
 115  001E  0700     E  	mov a,rc
 115  001F  1200     R  	sbc a,_my_memcpy_2[5]
 115  0020  3F0A        	sz cz
 115  0021  2800     R  	jmp _L27
 116  0022              #line 116 "E:\Project\17.HT66F4560_EVM_V1.0\CODE\HT66F4560_TuYa_FishTank_V1.0\mcu_sdk\mcu_api.c"
 116  0022  0700     E  	mov a,rb
 116  0023  0300     R  	add a,_my_memcpy_2[2]
 116  0024  0083        	mov mp,a
 116  0025  0700     E  	mov a,rc
 116  0026  1300     R  	adc a,_my_memcpy_2[3]
 116  0027  0084        	mov sbp,a
 116  0028              	fcall _Crom2Prom
 116  002F  0080     E  	mov ra,a
 116  0030  0700     E  	mov a,rb
 116  0031  0300     R  	add a,_my_memcpy_2[0]
"File: mcu_api.c     Assembler  Version HGASM0202      Page 7

 116  0032  0083        	mov mp,a
 116  0033  0700     E  	mov a,rc
 116  0034  1300     R  	adc a,_my_memcpy_2[1]
 116  0035  0084        	mov sbp,a
 116  0036  0700     E  	mov a,ra
 116  0037  0082        	mov ir,a
 115  0038              #line 115 "E:\Project\17.HT66F4560_EVM_V1.0\CODE\HT66F4560_TuYa_FishTank_V1.0\mcu_sdk\mcu_api.c"
 115  0038  1480     E  	inc rb
 115  0039  3D0A        	sz z
 115  003A  1480     E  	inc rc
 115  003B  2800     R  	jmp _L24
 115  003C              _L27:
 105  003C              #line 105 "E:\Project\17.HT66F4560_EVM_V1.0\CODE\HT66F4560_TuYa_FishTank_V1.0\mcu_sdk\mcu_api.c"
 105  003C  0700     R  	mov a,_my_memcpy_2[0]
 105  003D  0080     E  	mov ra,a
 105  003E  0700     R  	mov a,_my_memcpy_2[1]
 105  003F  0080     E  	mov rb,a
 105  0040  2800     R  	jmp _L21
 105  0041              _L23:
 119  0041              #line 119 "E:\Project\17.HT66F4560_EVM_V1.0\CODE\HT66F4560_TuYa_FishTank_V1.0\mcu_sdk\mcu_api.c"
 119  0041  0700     R  	mov a,_my_memcpy_2[4]
 119  0042  0500     R  	or a,_my_memcpy_2[5]
 119  0043  3D0A        	sz z
 119  0044  2800     R  	jmp _L27
 120  0045              #line 120 "E:\Project\17.HT66F4560_EVM_V1.0\CODE\HT66F4560_TuYa_FishTank_V1.0\mcu_sdk\mcu_api.c"
 120  0045  0FFF        	mov a,255
 120  0046  0380     R  	addm a,_my_memcpy_2[4]
 120  0047  0FFF        	mov a,255
 120  0048  1380     R  	adcm a,_my_memcpy_2[5]
 120  0049  0700     R  	mov a,_my_memcpy_2[4]
 120  004A  0300     R  	add a,_my_memcpy_2[2]
 120  004B  0083        	mov mp,a
 120  004C  0700     R  	mov a,_my_memcpy_2[5]
 120  004D  1300     R  	adc a,_my_memcpy_2[3]
 120  004E  0084        	mov sbp,a
 120  004F              	fcall _Crom2Prom
 120  0056  0080     E  	mov ra,a
 120  0057  0700     R  	mov a,_my_memcpy_2[4]
 120  0058  0300     R  	add a,_my_memcpy_2[0]
 120  0059  0083        	mov mp,a
 120  005A  0700     R  	mov a,_my_memcpy_2[5]
 120  005B  1300     R  	adc a,_my_memcpy_2[1]
 120  005C  0084        	mov sbp,a
 120  005D  0700     E  	mov a,ra
 120  005E  0082        	mov ir,a
 120  005F  2800     R  	jmp _L23
 120  0060              _L29:
 111  0060              #line 111 "E:\Project\17.HT66F4560_EVM_V1.0\CODE\HT66F4560_TuYa_FishTank_V1.0\mcu_sdk\mcu_api.c"
 111  0060  1F00     E  	clr ra
 111  0061  1F00     E  	clr rb
 111  0062              _L21:
 111  0062  0003        	ret
 111  0063              _my_memcpy endp
 111  0063              #line 111 "E:\Project\17.HT66F4560_EVM_V1.0\CODE\HT66F4560_TuYa_FishTank_V1.0\mcu_sdk\mcu_api.c"
 111  0063              #pragma debug scope 1 1
 111  0063              public _my_strcpy
 111  0063              #pragma debug scope 6 1
 134  0063              #line 134 "E:\Project\17.HT66F4560_EVM_V1.0\CODE\HT66F4560_TuYa_FishTank_V1.0\mcu_sdk\mcu_api.c"
 134  0000              _my_strcpy .section 'code'
 134  0000              _my_strcpy proc
"File: mcu_api.c     Assembler  Version HGASM0202      Page 8

 134  0000              public _my_strcpy_2
 134  0000  0004[           local _my_strcpy_2 db 4 dup(?)	; 4,0
            00
            ]
 134  0004              #pragma debug pointer 46 7 6
 134  0004              #pragma debug pointer 46 7 6
 134  0004              #pragma debug variable 46 6 _my_strcpy_2+0 "dest"
 134  0004              #pragma debug pointer 47 7 6
 134  0004              #pragma debug pointer 47 7 6
 134  0004              #pragma debug variable 47 6 _my_strcpy_2+2 "src"
 135  0004              #line 135 "E:\Project\17.HT66F4560_EVM_V1.0\CODE\HT66F4560_TuYa_FishTank_V1.0\mcu_sdk\mcu_api.c"
 135  0000  0700     R  	mov a,_my_strcpy_2[0]
 135  0001  0500     R  	or a,_my_strcpy_2[1]
 135  0002  3D0A        	sz z
 135  0003  2800     R  	jmp _L35
 135  0004              #line 135 "E:\Project\17.HT66F4560_EVM_V1.0\CODE\HT66F4560_TuYa_FishTank_V1.0\mcu_sdk\mcu_api.c"
 135  0004  0700     R  	mov a,_my_strcpy_2[2]
 135  0005  0500     R  	or a,_my_strcpy_2[3]
 135  0006  3D0A        	sz z
 135  0007  2800     R  	jmp _L35
 135  0008  0700     R  	mov a,_my_strcpy_2[0]
 135  0009  0080     E  	mov rb,a
 135  000A  0700     R  	mov a,_my_strcpy_2[1]
 135  000B  0080     E  	mov rc,a
 135  000C              _L32:
 140  000C              #line 140 "E:\Project\17.HT66F4560_EVM_V1.0\CODE\HT66F4560_TuYa_FishTank_V1.0\mcu_sdk\mcu_api.c"
 140  000C  0700     R  	mov a,_my_strcpy_2[2]
 140  000D  0083        	mov mp,a
 140  000E  0700     R  	mov a,_my_strcpy_2[3]
 140  000F  0084        	mov sbp,a
 140  0010              	fcall _Crom2Prom
 140  0017  0080     E  	mov ra,a
 140  0018  1E00     E  	snz ra
 140  0019  2800     R  	jmp _L36
 141  001A              #line 141 "E:\Project\17.HT66F4560_EVM_V1.0\CODE\HT66F4560_TuYa_FishTank_V1.0\mcu_sdk\mcu_api.c"
 141  001A  1480     R  	inc _my_strcpy_2[2]
 141  001B  3D0A        	sz z
 141  001C  1480     R  	inc _my_strcpy_2[3]
 141  001D  0700     E  	mov a,rb
 141  001E  0083        	mov mp,a
 141  001F  0700     E  	mov a,rc
 141  0020  0084        	mov sbp,a
 141  0021  0700     E  	mov a,ra
 141  0022  0082        	mov ir,a
 141  0023  1480     E  	inc rb
 141  0024  3D0A        	sz z
 141  0025  1480     E  	inc rc
 141  0026  2800     R  	jmp _L32
 141  0027              _L36:
 143  0027              #line 143 "E:\Project\17.HT66F4560_EVM_V1.0\CODE\HT66F4560_TuYa_FishTank_V1.0\mcu_sdk\mcu_api.c"
 143  0027  0700     E  	mov a,rb
 143  0028  0083        	mov mp,a
 143  0029  0700     E  	mov a,rc
 143  002A  0084        	mov sbp,a
 143  002B  0F00        	mov a,0
 143  002C  0082        	mov ir,a
 144  002D              #line 144 "E:\Project\17.HT66F4560_EVM_V1.0\CODE\HT66F4560_TuYa_FishTank_V1.0\mcu_sdk\mcu_api.c"
 144  002D  0700     R  	mov a,_my_strcpy_2[0]
 144  002E  0080     E  	mov ra,a
 144  002F  0700     R  	mov a,_my_strcpy_2[1]
"File: mcu_api.c     Assembler  Version HGASM0202      Page 9

 144  0030  0080     E  	mov rb,a
 144  0031  2800     R  	jmp _L31
 144  0032              _L35:
 136  0032              #line 136 "E:\Project\17.HT66F4560_EVM_V1.0\CODE\HT66F4560_TuYa_FishTank_V1.0\mcu_sdk\mcu_api.c"
 136  0032  1F00     E  	clr ra
 136  0033  1F00     E  	clr rb
 136  0034              _L31:
 136  0034  0003        	ret
 136  0035              _my_strcpy endp
 136  0035              #line 136 "E:\Project\17.HT66F4560_EVM_V1.0\CODE\HT66F4560_TuYa_FishTank_V1.0\mcu_sdk\mcu_api.c"
 136  0035              #pragma debug scope 1 1
 136  0035              public _my_strcmp
 136  0035              #pragma debug scope 7 1
 157  0035              #line 157 "E:\Project\17.HT66F4560_EVM_V1.0\CODE\HT66F4560_TuYa_FishTank_V1.0\mcu_sdk\mcu_api.c"
 157  0000              _my_strcmp .section 'code'
 157  0000              _my_strcmp proc
 157  0000              public _my_strcmp_2
 157  0000  0004[           local _my_strcmp_2 db 4 dup(?)	; 4,0
            00
            ]
 157  0004              #pragma debug pointer 48 7 7
 157  0004              #pragma debug pointer 48 7 7
 157  0004              #pragma debug variable 48 7 _my_strcmp_2+0 "s1"
 157  0004              #pragma debug variable 48 7 _my_strcmp_2+2 "s2"
 157  0000              _L38:
 158  0000              #line 158 "E:\Project\17.HT66F4560_EVM_V1.0\CODE\HT66F4560_TuYa_FishTank_V1.0\mcu_sdk\mcu_api.c"
 158  0000  0700     R  	mov a,_my_strcmp_2[0]
 158  0001  0083        	mov mp,a
 158  0002  0700     R  	mov a,_my_strcmp_2[1]
 158  0003  0084        	mov sbp,a
 158  0004              	fcall _Crom2Prom
 158  000B  0080     E  	mov ra,a
 158  000C  0700     R  	mov a,_my_strcmp_2[2]
 158  000D  0080     E  	mov rb,a
 158  000E  0700     R  	mov a,_my_strcmp_2[3]
 158  000F  0080     E  	mov rc,a
 158  0010  1E00     E  	snz ra
 158  0011  2800     R  	jmp _L39
 158  0012  0700     E  	mov a,rb
 158  0013  0083        	mov mp,a
 158  0014  0700     E  	mov a,rc
 158  0015  0084        	mov sbp,a
 158  0016              	fcall _Crom2Prom
 158  001D  0080     E  	mov rd,a
 158  001E  1E00     E  	snz rd
 158  001F  2800     R  	jmp _L39
 158  0020  0700     E  	mov a,ra
 158  0021  0200     E  	sub a,rd
 158  0022  390A        	snz z
 158  0023  2800     R  	jmp _L39
 159  0024              #line 159 "E:\Project\17.HT66F4560_EVM_V1.0\CODE\HT66F4560_TuYa_FishTank_V1.0\mcu_sdk\mcu_api.c"
 159  0024  1480     R  	inc _my_strcmp_2[0]
 159  0025  3D0A        	sz z
 159  0026  1480     R  	inc _my_strcmp_2[1]
 160  0027              #line 160 "E:\Project\17.HT66F4560_EVM_V1.0\CODE\HT66F4560_TuYa_FishTank_V1.0\mcu_sdk\mcu_api.c"
 160  0027  1480     R  	inc _my_strcmp_2[2]
 160  0028  3D0A        	sz z
 160  0029  1480     R  	inc _my_strcmp_2[3]
 160  002A  2800     R  	jmp _L38
 160  002B              _L39:
"File: mcu_api.c     Assembler  Version HGASM0202      Page 10

 162  002B              #line 162 "E:\Project\17.HT66F4560_EVM_V1.0\CODE\HT66F4560_TuYa_FishTank_V1.0\mcu_sdk\mcu_api.c"
 162  002B  0700     E  	mov a,rb
 162  002C  0083        	mov mp,a
 162  002D  0700     E  	mov a,rc
 162  002E  0084        	mov sbp,a
 162  002F              	fcall _Crom2Prom
 162  0036  0080     E  	mov rb,a
 162  0037  1F00     E  	clr rc
 162  0038  3C00     E  	sz rb.7
 162  0039  1F80     E  	set rc
 163  003A              #line 163 "E:\Project\17.HT66F4560_EVM_V1.0\CODE\HT66F4560_TuYa_FishTank_V1.0\mcu_sdk\mcu_api.c"
 163  003A  0700     E  	mov a,ra
 163  003B  0200     E  	sub a,rb
 163  003C  0080     E  	mov rd,a
 163  003D  1F05        	clr acc
 163  003E  3C00     E  	sz ra.7
 163  003F  1F85        	set acc
 163  0040  1200     E  	sbc a,rc
 163  0041  0080     E  	mov re,a
 163  0042  0700     E  	mov a,rd
 163  0043  0080     E  	mov ra,a
 163  0044  0700     E  	mov a,re
 163  0045  0080     E  	mov rb,a
 163  0046  0003        	ret
 163  0047              _my_strcmp endp
 163  0047              #line 163 "E:\Project\17.HT66F4560_EVM_V1.0\CODE\HT66F4560_TuYa_FishTank_V1.0\mcu_sdk\mcu_api.c"
 163  0047              #pragma debug scope 1 1
 163  0047              public _int_to_byte
 163  0047              #pragma debug scope 8 1
 172  0047              #line 172 "E:\Project\17.HT66F4560_EVM_V1.0\CODE\HT66F4560_TuYa_FishTank_V1.0\mcu_sdk\mcu_api.c"
 172  0000              _int_to_byte .section 'code'
 172  0000              _int_to_byte proc
 172  0000              public _int_to_byte_2
 172  0000  0006[           local _int_to_byte_2 db 6 dup(?)	; 6,0
            00
            ]
 172  0006              #pragma debug variable 14 8 _int_to_byte_2+0 "number"
 172  0006              #pragma debug pointer 49 8 8
 172  0006              #pragma debug pointer 49 8 8
 172  0006              #pragma debug variable 49 8 _int_to_byte_2+4 "value"
 173  0006              #line 173 "E:\Project\17.HT66F4560_EVM_V1.0\CODE\HT66F4560_TuYa_FishTank_V1.0\mcu_sdk\mcu_api.c"
 173  0000  0700     R  	mov a,_int_to_byte_2[4]
 173  0001  0083        	mov mp,a
 173  0002  0700     R  	mov a,_int_to_byte_2[5]
 173  0003  0084        	mov sbp,a
 173  0004  0700     R  	mov a,_int_to_byte_2[3]
 173  0005  0082        	mov ir,a
 174  0006              #line 174 "E:\Project\17.HT66F4560_EVM_V1.0\CODE\HT66F4560_TuYa_FishTank_V1.0\mcu_sdk\mcu_api.c"
 174  0006  0F01        	mov a,1
 174  0007  0300     R  	add a,_int_to_byte_2[4]
 174  0008  0083        	mov mp,a
 174  0009  0F00        	mov a,0
 174  000A  1300     R  	adc a,_int_to_byte_2[5]
 174  000B  0084        	mov sbp,a
 174  000C  0700     R  	mov a,_int_to_byte_2[2]
 174  000D  0082        	mov ir,a
 175  000E              #line 175 "E:\Project\17.HT66F4560_EVM_V1.0\CODE\HT66F4560_TuYa_FishTank_V1.0\mcu_sdk\mcu_api.c"
 175  000E  0F02        	mov a,2
 175  000F  0300     R  	add a,_int_to_byte_2[4]
 175  0010  0083        	mov mp,a
"File: mcu_api.c     Assembler  Version HGASM0202      Page 11

 175  0011  0F00        	mov a,0
 175  0012  1300     R  	adc a,_int_to_byte_2[5]
 175  0013  0084        	mov sbp,a
 175  0014  0700     R  	mov a,_int_to_byte_2[1]
 175  0015  0082        	mov ir,a
 176  0016              #line 176 "E:\Project\17.HT66F4560_EVM_V1.0\CODE\HT66F4560_TuYa_FishTank_V1.0\mcu_sdk\mcu_api.c"
 176  0016  0F03        	mov a,3
 176  0017  0300     R  	add a,_int_to_byte_2[4]
 176  0018  0083        	mov mp,a
 176  0019  0F00        	mov a,0
 176  001A  1300     R  	adc a,_int_to_byte_2[5]
 176  001B  0084        	mov sbp,a
 176  001C  0700     R  	mov a,_int_to_byte_2[0]
 176  001D  0082        	mov ir,a
 176  001E  0003        	ret
 176  001F              _int_to_byte endp
 176  001F              #line 176 "E:\Project\17.HT66F4560_EVM_V1.0\CODE\HT66F4560_TuYa_FishTank_V1.0\mcu_sdk\mcu_api.c"
 176  001F              #pragma debug scope 1 1
 176  001F              public _byte_to_int
 176  001F              #pragma debug scope 9 1
 185  001F              #line 185 "E:\Project\17.HT66F4560_EVM_V1.0\CODE\HT66F4560_TuYa_FishTank_V1.0\mcu_sdk\mcu_api.c"
 185  0000              _byte_to_int .section 'code'
 185  0000              _byte_to_int proc
 185  0000              public _byte_to_int_2
 185  0000  000A[           local _byte_to_int_2 db 10 dup(?)	; 2,8
            00
            ]
 185  000A              #pragma debug pointer 50 8 9
 185  000A              #pragma debug pointer 50 8 9
 185  000A              #pragma debug variable 50 9 _byte_to_int_2+0 "value"
 188  000A              #line 188 "E:\Project\17.HT66F4560_EVM_V1.0\CODE\HT66F4560_TuYa_FishTank_V1.0\mcu_sdk\mcu_api.c"
 188  0000  0700     R  	mov a,_byte_to_int_2[0]
 188  0001  0080     E  	mov rb,a
 188  0002  0700     R  	mov a,_byte_to_int_2[1]
 188  0003  0080     E  	mov rc,a
 188  0004  0700     E  	mov a,rb
 188  0005  0083        	mov mp,a
 188  0006  0700     E  	mov a,rc
 188  0007  0084        	mov sbp,a
 188  0008              	fcall _Crom2Prom
 188  000F  0080     E  	mov rd,a
 188  0010  1F00     E  	clr re
 188  0011  1F00     E  	clr rf
 188  0012  1F00     E  	clr rg
 189  0013              #line 189 "E:\Project\17.HT66F4560_EVM_V1.0\CODE\HT66F4560_TuYa_FishTank_V1.0\mcu_sdk\mcu_api.c"
 189  0013  0700     E  	mov a,rf
 189  0014  0080     E  	mov rg,a
 189  0015  0700     E  	mov a,re
 189  0016  0080     E  	mov rf,a
 189  0017  0700     E  	mov a,rd
 189  0018  0080     E  	mov re,a
 189  0019  1F00     E  	clr rd
 190  001A              #line 190 "E:\Project\17.HT66F4560_EVM_V1.0\CODE\HT66F4560_TuYa_FishTank_V1.0\mcu_sdk\mcu_api.c"
 190  001A  0F01        	mov a,1
 190  001B  0300     E  	add a,rb
 190  001C  0083        	mov mp,a
 190  001D  0F00        	mov a,0
 190  001E  1300     E  	adc a,rc
 190  001F  0084        	mov sbp,a
 190  0020              	fcall _Crom2Prom
"File: mcu_api.c     Assembler  Version HGASM0202      Page 12

 190  0027  0080     E  	mov ra,a
 190  0028  0700     E  	mov a,ra
 190  0029  0080     R  	mov _byte_to_int_2[2],a
 190  002A  1F00     R  	clr _byte_to_int_2[3]
 190  002B  1F00     R  	clr _byte_to_int_2[4]
 190  002C  1F00     R  	clr _byte_to_int_2[5]
 190  002D  0700     R  	mov a,_byte_to_int_2[5]
 190  002E  0580     E  	orm a,rg
 190  002F  0700     R  	mov a,_byte_to_int_2[4]
 190  0030  0580     E  	orm a,rf
 190  0031  0700     R  	mov a,_byte_to_int_2[3]
 190  0032  0580     E  	orm a,re
 190  0033  0700     R  	mov a,_byte_to_int_2[2]
 190  0034  0580     E  	orm a,rd
 191  0035              #line 191 "E:\Project\17.HT66F4560_EVM_V1.0\CODE\HT66F4560_TuYa_FishTank_V1.0\mcu_sdk\mcu_api.c"
 191  0035  0700     E  	mov a,rf
 191  0036  0080     E  	mov rg,a
 191  0037  0700     E  	mov a,re
 191  0038  0080     E  	mov rf,a
 191  0039  0700     E  	mov a,rd
 191  003A  0080     E  	mov re,a
 191  003B  1F00     E  	clr rd
 192  003C              #line 192 "E:\Project\17.HT66F4560_EVM_V1.0\CODE\HT66F4560_TuYa_FishTank_V1.0\mcu_sdk\mcu_api.c"
 192  003C  0F02        	mov a,2
 192  003D  0300     E  	add a,rb
 192  003E  0083        	mov mp,a
 192  003F  0F00        	mov a,0
 192  0040  1300     E  	adc a,rc
 192  0041  0084        	mov sbp,a
 192  0042              	fcall _Crom2Prom
 192  0049  0080     E  	mov ra,a
 192  004A  0700     E  	mov a,ra
 192  004B  0080     R  	mov _byte_to_int_2[2],a
 192  004C  1F00     R  	clr _byte_to_int_2[3]
 192  004D  1F00     R  	clr _byte_to_int_2[4]
 192  004E  1F00     R  	clr _byte_to_int_2[5]
 192  004F  0700     E  	mov a,rg
 192  0050  0500     R  	or a,_byte_to_int_2[5]
 192  0051  0080     R  	mov _byte_to_int_2[9],a
 192  0052  0700     E  	mov a,rf
 192  0053  0500     R  	or a,_byte_to_int_2[4]
 192  0054  0080     R  	mov _byte_to_int_2[8],a
 192  0055  0700     E  	mov a,re
 192  0056  0500     R  	or a,_byte_to_int_2[3]
 192  0057  0080     R  	mov _byte_to_int_2[7],a
 192  0058  0700     E  	mov a,rd
 192  0059  0500     R  	or a,_byte_to_int_2[2]
 192  005A  0080     R  	mov _byte_to_int_2[6],a
 193  005B              #line 193 "E:\Project\17.HT66F4560_EVM_V1.0\CODE\HT66F4560_TuYa_FishTank_V1.0\mcu_sdk\mcu_api.c"
 193  005B  0700     R  	mov a,_byte_to_int_2[8]
 193  005C  0080     R  	mov _byte_to_int_2[9],a
 193  005D  0700     R  	mov a,_byte_to_int_2[7]
 193  005E  0080     R  	mov _byte_to_int_2[8],a
 193  005F  0700     R  	mov a,_byte_to_int_2[6]
 193  0060  0080     R  	mov _byte_to_int_2[7],a
 193  0061  1F00     R  	clr _byte_to_int_2[6]
 194  0062              #line 194 "E:\Project\17.HT66F4560_EVM_V1.0\CODE\HT66F4560_TuYa_FishTank_V1.0\mcu_sdk\mcu_api.c"
 194  0062  0F03        	mov a,3
 194  0063  0300     E  	add a,rb
 194  0064  0083        	mov mp,a
"File: mcu_api.c     Assembler  Version HGASM0202      Page 13

 194  0065  0F00        	mov a,0
 194  0066  1300     E  	adc a,rc
 194  0067  0084        	mov sbp,a
 194  0068              	fcall _Crom2Prom
 194  006F  0080     E  	mov ra,a
 194  0070  1F00     E  	clr rb
 194  0071  1F00     E  	clr rc
 194  0072  1F00     E  	clr rd
 197  0073              #line 197 "E:\Project\17.HT66F4560_EVM_V1.0\CODE\HT66F4560_TuYa_FishTank_V1.0\mcu_sdk\mcu_api.c"
 197  0073  0700     R  	mov a,_byte_to_int_2[9]
 197  0074  0580     E  	orm a,rd
 197  0075  0700     R  	mov a,_byte_to_int_2[8]
 197  0076  0580     E  	orm a,rc
 197  0077  0700     R  	mov a,_byte_to_int_2[7]
 197  0078  0580     E  	orm a,rb
 197  0079  0700     R  	mov a,_byte_to_int_2[6]
 197  007A  0580     E  	orm a,ra
 197  007B  0003        	ret
 197  007C              _byte_to_int endp
 197  007C              #line 197 "E:\Project\17.HT66F4560_EVM_V1.0\CODE\HT66F4560_TuYa_FishTank_V1.0\mcu_sdk\mcu_api.c"
 197  007C              #pragma debug scope 1 1
 197  007C              public _mcu_dp_raw_update
 197  007C              #pragma debug scope 10 1
 208  007C              #line 208 "E:\Project\17.HT66F4560_EVM_V1.0\CODE\HT66F4560_TuYa_FishTank_V1.0\mcu_sdk\mcu_api.c"
 208  0000              _mcu_dp_raw_update .section 'code'
 208  0000              _mcu_dp_raw_update proc
 208  0000              public _mcu_dp_raw_update_2
 208  0000  0005[           local _mcu_dp_raw_update_2 db 5 dup(?)	; 4,1
            00
            ]
 208  0000  0080     R  	mov _mcu_dp_raw_update_2[4],a
 208  0001              #pragma debug variable 8 10 _mcu_dp_raw_update_2+4 "dpid"
 208  0001              #pragma debug pointer 51 8 10
 208  0001              #pragma debug pointer 51 8 10
 208  0001              #pragma debug variable 51 10 _mcu_dp_raw_update_2+0 "value"
 208  0001              #pragma debug variable 10 10 _mcu_dp_raw_update_2+2 "len"
 211  0001              #line 211 "E:\Project\17.HT66F4560_EVM_V1.0\CODE\HT66F4560_TuYa_FishTank_V1.0\mcu_sdk\mcu_api.c"
 211  0001  1700     E  	sdza _stop_update_flag[0]
 211  0002  2800     R  	jmp _LI1
 211  0003  2800     R  	jmp _L50
 211  0004              _LI1:
 214  0004              #line 214 "E:\Project\17.HT66F4560_EVM_V1.0\CODE\HT66F4560_TuYa_FishTank_V1.0\mcu_sdk\mcu_api.c"
 214  0004  0700     R  	mov a,_mcu_dp_raw_update_2[4]
 214  0005  0080     E  	mov _set_wifi_uart_byte_2[2],a
 214  0006  1F00     E  	clr _set_wifi_uart_byte_2[0]
 214  0007  1F00     E  	clr _set_wifi_uart_byte_2[1]
 214  0008              	fcall _set_wifi_uart_byte
 215  000F              #line 215 "E:\Project\17.HT66F4560_EVM_V1.0\CODE\HT66F4560_TuYa_FishTank_V1.0\mcu_sdk\mcu_api.c"
 215  000F  1F00     E  	clr _set_wifi_uart_byte_2[2]
 215  0010  0700     E  	mov a,ra
 215  0011  0080     E  	mov _set_wifi_uart_byte_2[0],a
 215  0012  0700     E  	mov a,rb
 215  0013  0080     E  	mov _set_wifi_uart_byte_2[1],a
 215  0014              	fcall _set_wifi_uart_byte
 217  001B              #line 217 "E:\Project\17.HT66F4560_EVM_V1.0\CODE\HT66F4560_TuYa_FishTank_V1.0\mcu_sdk\mcu_api.c"
 217  001B  0700     R  	mov a,_mcu_dp_raw_update_2[3]
 217  001C  0080     E  	mov _set_wifi_uart_byte_2[2],a
 217  001D  0700     E  	mov a,ra
 217  001E  0080     E  	mov _set_wifi_uart_byte_2[0],a
 217  001F  0700     E  	mov a,rb
"File: mcu_api.c     Assembler  Version HGASM0202      Page 14

 217  0020  0080     E  	mov _set_wifi_uart_byte_2[1],a
 217  0021              	fcall _set_wifi_uart_byte
 218  0028              #line 218 "E:\Project\17.HT66F4560_EVM_V1.0\CODE\HT66F4560_TuYa_FishTank_V1.0\mcu_sdk\mcu_api.c"
 218  0028  0700     R  	mov a,_mcu_dp_raw_update_2[2]
 218  0029  0080     E  	mov _set_wifi_uart_byte_2[2],a
 218  002A  0700     E  	mov a,ra
 218  002B  0080     E  	mov _set_wifi_uart_byte_2[0],a
 218  002C  0700     E  	mov a,rb
 218  002D  0080     E  	mov _set_wifi_uart_byte_2[1],a
 218  002E              	fcall _set_wifi_uart_byte
 220  0035              #line 220 "E:\Project\17.HT66F4560_EVM_V1.0\CODE\HT66F4560_TuYa_FishTank_V1.0\mcu_sdk\mcu_api.c"
 220  0035  0700     R  	mov a,_mcu_dp_raw_update_2[2]
 220  0036  0080     E  	mov _set_wifi_uart_buffer_2[4],a
 220  0037  0700     R  	mov a,_mcu_dp_raw_update_2[3]
 220  0038  0080     E  	mov _set_wifi_uart_buffer_2[5],a
 220  0039  0700     R  	mov a,_mcu_dp_raw_update_2[0]
 220  003A  0080     E  	mov _set_wifi_uart_buffer_2[2],a
 220  003B  0700     R  	mov a,_mcu_dp_raw_update_2[1]
 220  003C  0080     E  	mov _set_wifi_uart_buffer_2[3],a
 220  003D  0700     E  	mov a,ra
 220  003E  0080     E  	mov _set_wifi_uart_buffer_2[0],a
 220  003F  0700     E  	mov a,rb
 220  0040  0080     E  	mov _set_wifi_uart_buffer_2[1],a
 220  0041              	fcall _set_wifi_uart_buffer
 222  0048              #line 222 "E:\Project\17.HT66F4560_EVM_V1.0\CODE\HT66F4560_TuYa_FishTank_V1.0\mcu_sdk\mcu_api.c"
 222  0048  0700     E  	mov a,ra
 222  0049  0080     E  	mov _wifi_uart_write_frame_2[1],a
 222  004A  0700     E  	mov a,rb
 222  004B  0080     E  	mov _wifi_uart_write_frame_2[2],a
 222  004C  0F03        	mov a,3
 222  004D  0080     E  	mov _wifi_uart_write_frame_2[0],a
 222  004E  0F07        	mov a,7
 222  004F              	fcall _wifi_uart_write_frame
 222  0056              _L50:
 225  0056              #line 225 "E:\Project\17.HT66F4560_EVM_V1.0\CODE\HT66F4560_TuYa_FishTank_V1.0\mcu_sdk\mcu_api.c"
 225  0056  0F01        	mov a,1
 225  0057  0003        	ret
 225  0058              _mcu_dp_raw_update endp
 225  0058              #line 225 "E:\Project\17.HT66F4560_EVM_V1.0\CODE\HT66F4560_TuYa_FishTank_V1.0\mcu_sdk\mcu_api.c"
 225  0058              #pragma debug scope 1 1
 225  0058              public _mcu_dp_bool_update
 225  0058              #pragma debug scope 11 1
 235  0058              #line 235 "E:\Project\17.HT66F4560_EVM_V1.0\CODE\HT66F4560_TuYa_FishTank_V1.0\mcu_sdk\mcu_api.c"
 235  0000              _mcu_dp_bool_update .section 'code'
 235  0000              _mcu_dp_bool_update proc
 235  0000              public _mcu_dp_bool_update_2
 235  0000  0002[           local _mcu_dp_bool_update_2 db 2 dup(?)	; 1,1
            00
            ]
 235  0000  0080     R  	mov _mcu_dp_bool_update_2[1],a
 235  0001              #pragma debug variable 8 11 _mcu_dp_bool_update_2+1 "dpid"
 235  0001              #pragma debug variable 8 11 _mcu_dp_bool_update_2+0 "value"
 238  0001              #line 238 "E:\Project\17.HT66F4560_EVM_V1.0\CODE\HT66F4560_TuYa_FishTank_V1.0\mcu_sdk\mcu_api.c"
 238  0001  1700     E  	sdza _stop_update_flag[0]
 238  0002  2800     R  	jmp _LI2
 238  0003  2800     R  	jmp _L55
 238  0004              _LI2:
 241  0004              #line 241 "E:\Project\17.HT66F4560_EVM_V1.0\CODE\HT66F4560_TuYa_FishTank_V1.0\mcu_sdk\mcu_api.c"
 241  0004  0700     R  	mov a,_mcu_dp_bool_update_2[1]
 241  0005  0080     E  	mov _set_wifi_uart_byte_2[2],a
"File: mcu_api.c     Assembler  Version HGASM0202      Page 15

 241  0006  1F00     E  	clr _set_wifi_uart_byte_2[0]
 241  0007  1F00     E  	clr _set_wifi_uart_byte_2[1]
 241  0008              	fcall _set_wifi_uart_byte
 242  000F              #line 242 "E:\Project\17.HT66F4560_EVM_V1.0\CODE\HT66F4560_TuYa_FishTank_V1.0\mcu_sdk\mcu_api.c"
 242  000F  0F01        	mov a,1
 242  0010  0080     E  	mov _set_wifi_uart_byte_2[2],a
 242  0011  0700     E  	mov a,ra
 242  0012  0080     E  	mov _set_wifi_uart_byte_2[0],a
 242  0013  0700     E  	mov a,rb
 242  0014  0080     E  	mov _set_wifi_uart_byte_2[1],a
 242  0015              	fcall _set_wifi_uart_byte
 244  001C              #line 244 "E:\Project\17.HT66F4560_EVM_V1.0\CODE\HT66F4560_TuYa_FishTank_V1.0\mcu_sdk\mcu_api.c"
 244  001C  1F00     E  	clr _set_wifi_uart_byte_2[2]
 244  001D  0700     E  	mov a,ra
 244  001E  0080     E  	mov _set_wifi_uart_byte_2[0],a
 244  001F  0700     E  	mov a,rb
 244  0020  0080     E  	mov _set_wifi_uart_byte_2[1],a
 244  0021              	fcall _set_wifi_uart_byte
 245  0028              #line 245 "E:\Project\17.HT66F4560_EVM_V1.0\CODE\HT66F4560_TuYa_FishTank_V1.0\mcu_sdk\mcu_api.c"
 245  0028  0F01        	mov a,1
 245  0029  0080     E  	mov _set_wifi_uart_byte_2[2],a
 245  002A  0700     E  	mov a,ra
 245  002B  0080     E  	mov _set_wifi_uart_byte_2[0],a
 245  002C  0700     E  	mov a,rb
 245  002D  0080     E  	mov _set_wifi_uart_byte_2[1],a
 245  002E              	fcall _set_wifi_uart_byte
 247  0035              #line 247 "E:\Project\17.HT66F4560_EVM_V1.0\CODE\HT66F4560_TuYa_FishTank_V1.0\mcu_sdk\mcu_api.c"
 247  0035  1080     R  	sz _mcu_dp_bool_update_2[0]
 247  0036  2800     R  	jmp _L56
 248  0037              #line 248 "E:\Project\17.HT66F4560_EVM_V1.0\CODE\HT66F4560_TuYa_FishTank_V1.0\mcu_sdk\mcu_api.c"
 248  0037  1F00     E  	clr _set_wifi_uart_byte_2[2]
 248  0038  2800     R  	jmp _L61
 248  0039              _L56:
 250  0039              #line 250 "E:\Project\17.HT66F4560_EVM_V1.0\CODE\HT66F4560_TuYa_FishTank_V1.0\mcu_sdk\mcu_api.c"
 250  0039  0F01        	mov a,1
 250  003A  0080     E  	mov _set_wifi_uart_byte_2[2],a
 250  003B              _L61:
 250  003B  0700     E  	mov a,ra
 250  003C  0080     E  	mov _set_wifi_uart_byte_2[0],a
 250  003D  0700     E  	mov a,rb
 250  003E  0080     E  	mov _set_wifi_uart_byte_2[1],a
 250  003F              	fcall _set_wifi_uart_byte
 253  0046              #line 253 "E:\Project\17.HT66F4560_EVM_V1.0\CODE\HT66F4560_TuYa_FishTank_V1.0\mcu_sdk\mcu_api.c"
 253  0046  0700     E  	mov a,ra
 253  0047  0080     E  	mov _wifi_uart_write_frame_2[1],a
 253  0048  0700     E  	mov a,rb
 253  0049  0080     E  	mov _wifi_uart_write_frame_2[2],a
 253  004A  0F03        	mov a,3
 253  004B  0080     E  	mov _wifi_uart_write_frame_2[0],a
 253  004C  0F07        	mov a,7
 253  004D              	fcall _wifi_uart_write_frame
 253  0054              _L55:
 256  0054              #line 256 "E:\Project\17.HT66F4560_EVM_V1.0\CODE\HT66F4560_TuYa_FishTank_V1.0\mcu_sdk\mcu_api.c"
 256  0054  0F01        	mov a,1
 256  0055  0003        	ret
 256  0056              _mcu_dp_bool_update endp
 256  0056              #line 256 "E:\Project\17.HT66F4560_EVM_V1.0\CODE\HT66F4560_TuYa_FishTank_V1.0\mcu_sdk\mcu_api.c"
 256  0056              #pragma debug scope 1 1
 256  0056              public _mcu_dp_value_update
 256  0056              #pragma debug scope 12 1
"File: mcu_api.c     Assembler  Version HGASM0202      Page 16

 266  0056              #line 266 "E:\Project\17.HT66F4560_EVM_V1.0\CODE\HT66F4560_TuYa_FishTank_V1.0\mcu_sdk\mcu_api.c"
 266  0000              _mcu_dp_value_update .section 'code'
 266  0000              _mcu_dp_value_update proc
 266  0000              public _mcu_dp_value_update_2
 266  0000  0005[           local _mcu_dp_value_update_2 db 5 dup(?)	; 4,1
            00
            ]
 266  0000  0080     R  	mov _mcu_dp_value_update_2[4],a
 266  0001              #pragma debug variable 8 12 _mcu_dp_value_update_2+4 "dpid"
 266  0001              #pragma debug variable 14 12 _mcu_dp_value_update_2+0 "value"
 269  0001              #line 269 "E:\Project\17.HT66F4560_EVM_V1.0\CODE\HT66F4560_TuYa_FishTank_V1.0\mcu_sdk\mcu_api.c"
 269  0001  1700     E  	sdza _stop_update_flag[0]
 269  0002  2800     R  	jmp _LI3
 269  0003  2800     R  	jmp _L63
 269  0004              _LI3:
 272  0004              #line 272 "E:\Project\17.HT66F4560_EVM_V1.0\CODE\HT66F4560_TuYa_FishTank_V1.0\mcu_sdk\mcu_api.c"
 272  0004  0700     R  	mov a,_mcu_dp_value_update_2[4]
 272  0005  0080     E  	mov _set_wifi_uart_byte_2[2],a
 272  0006  1F00     E  	clr _set_wifi_uart_byte_2[0]
 272  0007  1F00     E  	clr _set_wifi_uart_byte_2[1]
 272  0008              	fcall _set_wifi_uart_byte
 273  000F              #line 273 "E:\Project\17.HT66F4560_EVM_V1.0\CODE\HT66F4560_TuYa_FishTank_V1.0\mcu_sdk\mcu_api.c"
 273  000F  0F02        	mov a,2
 273  0010  0080     E  	mov _set_wifi_uart_byte_2[2],a
 273  0011  0700     E  	mov a,ra
 273  0012  0080     E  	mov _set_wifi_uart_byte_2[0],a
 273  0013  0700     E  	mov a,rb
 273  0014  0080     E  	mov _set_wifi_uart_byte_2[1],a
 273  0015              	fcall _set_wifi_uart_byte
 275  001C              #line 275 "E:\Project\17.HT66F4560_EVM_V1.0\CODE\HT66F4560_TuYa_FishTank_V1.0\mcu_sdk\mcu_api.c"
 275  001C  1F00     E  	clr _set_wifi_uart_byte_2[2]
 275  001D  0700     E  	mov a,ra
 275  001E  0080     E  	mov _set_wifi_uart_byte_2[0],a
 275  001F  0700     E  	mov a,rb
 275  0020  0080     E  	mov _set_wifi_uart_byte_2[1],a
 275  0021              	fcall _set_wifi_uart_byte
 276  0028              #line 276 "E:\Project\17.HT66F4560_EVM_V1.0\CODE\HT66F4560_TuYa_FishTank_V1.0\mcu_sdk\mcu_api.c"
 276  0028  0F04        	mov a,4
 276  0029  0080     E  	mov _set_wifi_uart_byte_2[2],a
 276  002A  0700     E  	mov a,ra
 276  002B  0080     E  	mov _set_wifi_uart_byte_2[0],a
 276  002C  0700     E  	mov a,rb
 276  002D  0080     E  	mov _set_wifi_uart_byte_2[1],a
 276  002E              	fcall _set_wifi_uart_byte
 278  0035              #line 278 "E:\Project\17.HT66F4560_EVM_V1.0\CODE\HT66F4560_TuYa_FishTank_V1.0\mcu_sdk\mcu_api.c"
 278  0035  0700     R  	mov a,_mcu_dp_value_update_2[3]
 278  0036  0080     E  	mov _set_wifi_uart_byte_2[2],a
 278  0037  0700     E  	mov a,ra
 278  0038  0080     E  	mov _set_wifi_uart_byte_2[0],a
 278  0039  0700     E  	mov a,rb
 278  003A  0080     E  	mov _set_wifi_uart_byte_2[1],a
 278  003B              	fcall _set_wifi_uart_byte
 279  0042              #line 279 "E:\Project\17.HT66F4560_EVM_V1.0\CODE\HT66F4560_TuYa_FishTank_V1.0\mcu_sdk\mcu_api.c"
 279  0042  0700     R  	mov a,_mcu_dp_value_update_2[2]
 279  0043  0080     E  	mov _set_wifi_uart_byte_2[2],a
 279  0044  0700     E  	mov a,ra
 279  0045  0080     E  	mov _set_wifi_uart_byte_2[0],a
 279  0046  0700     E  	mov a,rb
 279  0047  0080     E  	mov _set_wifi_uart_byte_2[1],a
 279  0048              	fcall _set_wifi_uart_byte
"File: mcu_api.c     Assembler  Version HGASM0202      Page 17

 280  004F              #line 280 "E:\Project\17.HT66F4560_EVM_V1.0\CODE\HT66F4560_TuYa_FishTank_V1.0\mcu_sdk\mcu_api.c"
 280  004F  0700     R  	mov a,_mcu_dp_value_update_2[1]
 280  0050  0080     E  	mov _set_wifi_uart_byte_2[2],a
 280  0051  0700     E  	mov a,ra
 280  0052  0080     E  	mov _set_wifi_uart_byte_2[0],a
 280  0053  0700     E  	mov a,rb
 280  0054  0080     E  	mov _set_wifi_uart_byte_2[1],a
 280  0055              	fcall _set_wifi_uart_byte
 281  005C              #line 281 "E:\Project\17.HT66F4560_EVM_V1.0\CODE\HT66F4560_TuYa_FishTank_V1.0\mcu_sdk\mcu_api.c"
 281  005C  0700     R  	mov a,_mcu_dp_value_update_2[0]
 281  005D  0080     E  	mov _set_wifi_uart_byte_2[2],a
 281  005E  0700     E  	mov a,ra
 281  005F  0080     E  	mov _set_wifi_uart_byte_2[0],a
 281  0060  0700     E  	mov a,rb
 281  0061  0080     E  	mov _set_wifi_uart_byte_2[1],a
 281  0062              	fcall _set_wifi_uart_byte
 283  0069              #line 283 "E:\Project\17.HT66F4560_EVM_V1.0\CODE\HT66F4560_TuYa_FishTank_V1.0\mcu_sdk\mcu_api.c"
 283  0069  0700     E  	mov a,ra
 283  006A  0080     E  	mov _wifi_uart_write_frame_2[1],a
 283  006B  0700     E  	mov a,rb
 283  006C  0080     E  	mov _wifi_uart_write_frame_2[2],a
 283  006D  0F03        	mov a,3
 283  006E  0080     E  	mov _wifi_uart_write_frame_2[0],a
 283  006F  0F07        	mov a,7
 283  0070              	fcall _wifi_uart_write_frame
 283  0077              _L63:
 286  0077              #line 286 "E:\Project\17.HT66F4560_EVM_V1.0\CODE\HT66F4560_TuYa_FishTank_V1.0\mcu_sdk\mcu_api.c"
 286  0077  0F01        	mov a,1
 286  0078  0003        	ret
 286  0079              _mcu_dp_value_update endp
 286  0079              #line 286 "E:\Project\17.HT66F4560_EVM_V1.0\CODE\HT66F4560_TuYa_FishTank_V1.0\mcu_sdk\mcu_api.c"
 286  0079              #pragma debug scope 1 1
 286  0079              public _mcu_dp_string_update
 286  0079              #pragma debug scope 13 1
 297  0079              #line 297 "E:\Project\17.HT66F4560_EVM_V1.0\CODE\HT66F4560_TuYa_FishTank_V1.0\mcu_sdk\mcu_api.c"
 297  0000              _mcu_dp_string_update .section 'code'
 297  0000              _mcu_dp_string_update proc
 297  0000              public _mcu_dp_string_update_2
 297  0000  0005[           local _mcu_dp_string_update_2 db 5 dup(?)	; 4,1
            00
            ]
 297  0000  0080     R  	mov _mcu_dp_string_update_2[4],a
 297  0001              #pragma debug variable 8 13 _mcu_dp_string_update_2+4 "dpid"
 297  0001              #pragma debug pointer 52 8 13
 297  0001              #pragma debug pointer 52 8 13
 297  0001              #pragma debug variable 52 13 _mcu_dp_string_update_2+0 "value"
 297  0001              #pragma debug variable 10 13 _mcu_dp_string_update_2+2 "len"
 300  0001              #line 300 "E:\Project\17.HT66F4560_EVM_V1.0\CODE\HT66F4560_TuYa_FishTank_V1.0\mcu_sdk\mcu_api.c"
 300  0001  1700     E  	sdza _stop_update_flag[0]
 300  0002  2800     R  	jmp _LI4
 300  0003  2800     R  	jmp _L68
 300  0004              _LI4:
 303  0004              #line 303 "E:\Project\17.HT66F4560_EVM_V1.0\CODE\HT66F4560_TuYa_FishTank_V1.0\mcu_sdk\mcu_api.c"
 303  0004  0700     R  	mov a,_mcu_dp_string_update_2[4]
 303  0005  0080     E  	mov _set_wifi_uart_byte_2[2],a
 303  0006  1F00     E  	clr _set_wifi_uart_byte_2[0]
 303  0007  1F00     E  	clr _set_wifi_uart_byte_2[1]
 303  0008              	fcall _set_wifi_uart_byte
 304  000F              #line 304 "E:\Project\17.HT66F4560_EVM_V1.0\CODE\HT66F4560_TuYa_FishTank_V1.0\mcu_sdk\mcu_api.c"
 304  000F  0F03        	mov a,3
"File: mcu_api.c     Assembler  Version HGASM0202      Page 18

 304  0010  0080     E  	mov _set_wifi_uart_byte_2[2],a
 304  0011  0700     E  	mov a,ra
 304  0012  0080     E  	mov _set_wifi_uart_byte_2[0],a
 304  0013  0700     E  	mov a,rb
 304  0014  0080     E  	mov _set_wifi_uart_byte_2[1],a
 304  0015              	fcall _set_wifi_uart_byte
 306  001C              #line 306 "E:\Project\17.HT66F4560_EVM_V1.0\CODE\HT66F4560_TuYa_FishTank_V1.0\mcu_sdk\mcu_api.c"
 306  001C  0700     R  	mov a,_mcu_dp_string_update_2[3]
 306  001D  0080     E  	mov _set_wifi_uart_byte_2[2],a
 306  001E  0700     E  	mov a,ra
 306  001F  0080     E  	mov _set_wifi_uart_byte_2[0],a
 306  0020  0700     E  	mov a,rb
 306  0021  0080     E  	mov _set_wifi_uart_byte_2[1],a
 306  0022              	fcall _set_wifi_uart_byte
 307  0029              #line 307 "E:\Project\17.HT66F4560_EVM_V1.0\CODE\HT66F4560_TuYa_FishTank_V1.0\mcu_sdk\mcu_api.c"
 307  0029  0700     R  	mov a,_mcu_dp_string_update_2[2]
 307  002A  0080     E  	mov _set_wifi_uart_byte_2[2],a
 307  002B  0700     E  	mov a,ra
 307  002C  0080     E  	mov _set_wifi_uart_byte_2[0],a
 307  002D  0700     E  	mov a,rb
 307  002E  0080     E  	mov _set_wifi_uart_byte_2[1],a
 307  002F              	fcall _set_wifi_uart_byte
 309  0036              #line 309 "E:\Project\17.HT66F4560_EVM_V1.0\CODE\HT66F4560_TuYa_FishTank_V1.0\mcu_sdk\mcu_api.c"
 309  0036  0700     R  	mov a,_mcu_dp_string_update_2[2]
 309  0037  0080     E  	mov _set_wifi_uart_buffer_2[4],a
 309  0038  0700     R  	mov a,_mcu_dp_string_update_2[3]
 309  0039  0080     E  	mov _set_wifi_uart_buffer_2[5],a
 309  003A  0700     R  	mov a,_mcu_dp_string_update_2[0]
 309  003B  0080     E  	mov _set_wifi_uart_buffer_2[2],a
 309  003C  0700     R  	mov a,_mcu_dp_string_update_2[1]
 309  003D  0080     E  	mov _set_wifi_uart_buffer_2[3],a
 309  003E  0700     E  	mov a,ra
 309  003F  0080     E  	mov _set_wifi_uart_buffer_2[0],a
 309  0040  0700     E  	mov a,rb
 309  0041  0080     E  	mov _set_wifi_uart_buffer_2[1],a
 309  0042              	fcall _set_wifi_uart_buffer
 311  0049              #line 311 "E:\Project\17.HT66F4560_EVM_V1.0\CODE\HT66F4560_TuYa_FishTank_V1.0\mcu_sdk\mcu_api.c"
 311  0049  0700     E  	mov a,ra
 311  004A  0080     E  	mov _wifi_uart_write_frame_2[1],a
 311  004B  0700     E  	mov a,rb
 311  004C  0080     E  	mov _wifi_uart_write_frame_2[2],a
 311  004D  0F03        	mov a,3
 311  004E  0080     E  	mov _wifi_uart_write_frame_2[0],a
 311  004F  0F07        	mov a,7
 311  0050              	fcall _wifi_uart_write_frame
 311  0057              _L68:
 314  0057              #line 314 "E:\Project\17.HT66F4560_EVM_V1.0\CODE\HT66F4560_TuYa_FishTank_V1.0\mcu_sdk\mcu_api.c"
 314  0057  0F01        	mov a,1
 314  0058  0003        	ret
 314  0059              _mcu_dp_string_update endp
 314  0059              #line 314 "E:\Project\17.HT66F4560_EVM_V1.0\CODE\HT66F4560_TuYa_FishTank_V1.0\mcu_sdk\mcu_api.c"
 314  0059              #pragma debug scope 1 1
 314  0059              public _mcu_dp_enum_update
 314  0059              #pragma debug scope 14 1
 324  0059              #line 324 "E:\Project\17.HT66F4560_EVM_V1.0\CODE\HT66F4560_TuYa_FishTank_V1.0\mcu_sdk\mcu_api.c"
 324  0000              _mcu_dp_enum_update .section 'code'
 324  0000              _mcu_dp_enum_update proc
 324  0000              public _mcu_dp_enum_update_2
 324  0000  0002[           local _mcu_dp_enum_update_2 db 2 dup(?)	; 1,1
            00
"File: mcu_api.c     Assembler  Version HGASM0202      Page 19

            ]
 324  0000  0080     R  	mov _mcu_dp_enum_update_2[1],a
 324  0001              #pragma debug variable 8 14 _mcu_dp_enum_update_2+1 "dpid"
 324  0001              #pragma debug variable 8 14 _mcu_dp_enum_update_2+0 "value"
 327  0001              #line 327 "E:\Project\17.HT66F4560_EVM_V1.0\CODE\HT66F4560_TuYa_FishTank_V1.0\mcu_sdk\mcu_api.c"
 327  0001  1700     E  	sdza _stop_update_flag[0]
 327  0002  2800     R  	jmp _LI5
 327  0003  2800     R  	jmp _L73
 327  0004              _LI5:
 330  0004              #line 330 "E:\Project\17.HT66F4560_EVM_V1.0\CODE\HT66F4560_TuYa_FishTank_V1.0\mcu_sdk\mcu_api.c"
 330  0004  0700     R  	mov a,_mcu_dp_enum_update_2[1]
 330  0005  0080     E  	mov _set_wifi_uart_byte_2[2],a
 330  0006  1F00     E  	clr _set_wifi_uart_byte_2[0]
 330  0007  1F00     E  	clr _set_wifi_uart_byte_2[1]
 330  0008              	fcall _set_wifi_uart_byte
 331  000F              #line 331 "E:\Project\17.HT66F4560_EVM_V1.0\CODE\HT66F4560_TuYa_FishTank_V1.0\mcu_sdk\mcu_api.c"
 331  000F  0F04        	mov a,4
 331  0010  0080     E  	mov _set_wifi_uart_byte_2[2],a
 331  0011  0700     E  	mov a,ra
 331  0012  0080     E  	mov _set_wifi_uart_byte_2[0],a
 331  0013  0700     E  	mov a,rb
 331  0014  0080     E  	mov _set_wifi_uart_byte_2[1],a
 331  0015              	fcall _set_wifi_uart_byte
 333  001C              #line 333 "E:\Project\17.HT66F4560_EVM_V1.0\CODE\HT66F4560_TuYa_FishTank_V1.0\mcu_sdk\mcu_api.c"
 333  001C  1F00     E  	clr _set_wifi_uart_byte_2[2]
 333  001D  0700     E  	mov a,ra
 333  001E  0080     E  	mov _set_wifi_uart_byte_2[0],a
 333  001F  0700     E  	mov a,rb
 333  0020  0080     E  	mov _set_wifi_uart_byte_2[1],a
 333  0021              	fcall _set_wifi_uart_byte
 334  0028              #line 334 "E:\Project\17.HT66F4560_EVM_V1.0\CODE\HT66F4560_TuYa_FishTank_V1.0\mcu_sdk\mcu_api.c"
 334  0028  0F01        	mov a,1
 334  0029  0080     E  	mov _set_wifi_uart_byte_2[2],a
 334  002A  0700     E  	mov a,ra
 334  002B  0080     E  	mov _set_wifi_uart_byte_2[0],a
 334  002C  0700     E  	mov a,rb
 334  002D  0080     E  	mov _set_wifi_uart_byte_2[1],a
 334  002E              	fcall _set_wifi_uart_byte
 336  0035              #line 336 "E:\Project\17.HT66F4560_EVM_V1.0\CODE\HT66F4560_TuYa_FishTank_V1.0\mcu_sdk\mcu_api.c"
 336  0035  0700     R  	mov a,_mcu_dp_enum_update_2[0]
 336  0036  0080     E  	mov _set_wifi_uart_byte_2[2],a
 336  0037  0700     E  	mov a,ra
 336  0038  0080     E  	mov _set_wifi_uart_byte_2[0],a
 336  0039  0700     E  	mov a,rb
 336  003A  0080     E  	mov _set_wifi_uart_byte_2[1],a
 336  003B              	fcall _set_wifi_uart_byte
 338  0042              #line 338 "E:\Project\17.HT66F4560_EVM_V1.0\CODE\HT66F4560_TuYa_FishTank_V1.0\mcu_sdk\mcu_api.c"
 338  0042  0700     E  	mov a,ra
 338  0043  0080     E  	mov _wifi_uart_write_frame_2[1],a
 338  0044  0700     E  	mov a,rb
 338  0045  0080     E  	mov _wifi_uart_write_frame_2[2],a
 338  0046  0F03        	mov a,3
 338  0047  0080     E  	mov _wifi_uart_write_frame_2[0],a
 338  0048  0F07        	mov a,7
 338  0049              	fcall _wifi_uart_write_frame
 338  0050              _L73:
 341  0050              #line 341 "E:\Project\17.HT66F4560_EVM_V1.0\CODE\HT66F4560_TuYa_FishTank_V1.0\mcu_sdk\mcu_api.c"
 341  0050  0F01        	mov a,1
 341  0051  0003        	ret
 341  0052              _mcu_dp_enum_update endp
"File: mcu_api.c     Assembler  Version HGASM0202      Page 20

 341  0052              #line 341 "E:\Project\17.HT66F4560_EVM_V1.0\CODE\HT66F4560_TuYa_FishTank_V1.0\mcu_sdk\mcu_api.c"
 341  0052              #pragma debug scope 1 1
 341  0052              public _mcu_dp_fault_update
 341  0052              #pragma debug scope 15 1
 351  0052              #line 351 "E:\Project\17.HT66F4560_EVM_V1.0\CODE\HT66F4560_TuYa_FishTank_V1.0\mcu_sdk\mcu_api.c"
 351  0000              _mcu_dp_fault_update .section 'code'
 351  0000              _mcu_dp_fault_update proc
 351  0000              public _mcu_dp_fault_update_2
 351  0000  0005[           local _mcu_dp_fault_update_2 db 5 dup(?)	; 4,1
            00
            ]
 351  0000  0080     R  	mov _mcu_dp_fault_update_2[4],a
 351  0001              #pragma debug variable 8 15 _mcu_dp_fault_update_2+4 "dpid"
 351  0001              #pragma debug variable 14 15 _mcu_dp_fault_update_2+0 "value"
 354  0001              #line 354 "E:\Project\17.HT66F4560_EVM_V1.0\CODE\HT66F4560_TuYa_FishTank_V1.0\mcu_sdk\mcu_api.c"
 354  0001  1700     E  	sdza _stop_update_flag[0]
 354  0002  2800     R  	jmp _LI6
 354  0003  2800     R  	jmp _L78
 354  0004              _LI6:
 357  0004              #line 357 "E:\Project\17.HT66F4560_EVM_V1.0\CODE\HT66F4560_TuYa_FishTank_V1.0\mcu_sdk\mcu_api.c"
 357  0004  0700     R  	mov a,_mcu_dp_fault_update_2[4]
 357  0005  0080     E  	mov _set_wifi_uart_byte_2[2],a
 357  0006  1F00     E  	clr _set_wifi_uart_byte_2[0]
 357  0007  1F00     E  	clr _set_wifi_uart_byte_2[1]
 357  0008              	fcall _set_wifi_uart_byte
 358  000F              #line 358 "E:\Project\17.HT66F4560_EVM_V1.0\CODE\HT66F4560_TuYa_FishTank_V1.0\mcu_sdk\mcu_api.c"
 358  000F  0F05        	mov a,5
 358  0010  0080     E  	mov _set_wifi_uart_byte_2[2],a
 358  0011  0700     E  	mov a,ra
 358  0012  0080     E  	mov _set_wifi_uart_byte_2[0],a
 358  0013  0700     E  	mov a,rb
 358  0014  0080     E  	mov _set_wifi_uart_byte_2[1],a
 358  0015              	fcall _set_wifi_uart_byte
 360  001C              #line 360 "E:\Project\17.HT66F4560_EVM_V1.0\CODE\HT66F4560_TuYa_FishTank_V1.0\mcu_sdk\mcu_api.c"
 360  001C  1F00     E  	clr _set_wifi_uart_byte_2[2]
 360  001D  0700     E  	mov a,ra
 360  001E  0080     E  	mov _set_wifi_uart_byte_2[0],a
 360  001F  0700     E  	mov a,rb
 360  0020  0080     E  	mov _set_wifi_uart_byte_2[1],a
 360  0021              	fcall _set_wifi_uart_byte
 362  0028              #line 362 "E:\Project\17.HT66F4560_EVM_V1.0\CODE\HT66F4560_TuYa_FishTank_V1.0\mcu_sdk\mcu_api.c"
 362  0028  0700     R  	mov a,_mcu_dp_fault_update_2[3]
 362  0029  0D00        	or a,0
 362  002A  0080     E  	mov rg,a
 362  002B  0700     R  	mov a,_mcu_dp_fault_update_2[2]
 362  002C  0D00        	or a,0
 362  002D  0080     E  	mov rf,a
 362  002E  0700     R  	mov a,_mcu_dp_fault_update_2[1]
 362  002F  0D00        	or a,0
 362  0030  0080     E  	mov re,a
 362  0031  0700     R  	mov a,_mcu_dp_fault_update_2[0]
 362  0032  0DFF        	or a,255
 362  0033  0080     E  	mov rd,a
 362  0034  0700     E  	mov a,rd
 362  0035  0CFF        	xor a,255
 362  0036  0500     E  	or a,rg
 362  0037  0500     E  	or a,rf
 362  0038  0500     E  	or a,re
 362  0039  390A        	snz z
 362  003A  2800     R  	jmp _L79
"File: mcu_api.c     Assembler  Version HGASM0202      Page 21

 363  003B              #line 363 "E:\Project\17.HT66F4560_EVM_V1.0\CODE\HT66F4560_TuYa_FishTank_V1.0\mcu_sdk\mcu_api.c"
 363  003B  0F01        	mov a,1
 363  003C  0080     E  	mov _set_wifi_uart_byte_2[2],a
 363  003D  2800     R  	jmp _L85
 363  003E              _L79:
 365  003E              #line 365 "E:\Project\17.HT66F4560_EVM_V1.0\CODE\HT66F4560_TuYa_FishTank_V1.0\mcu_sdk\mcu_api.c"
 365  003E  0700     R  	mov a,_mcu_dp_fault_update_2[3]
 365  003F  0D00        	or a,0
 365  0040  0080     E  	mov rg,a
 365  0041  0700     R  	mov a,_mcu_dp_fault_update_2[2]
 365  0042  0D00        	or a,0
 365  0043  0080     E  	mov rf,a
 365  0044  0700     R  	mov a,_mcu_dp_fault_update_2[1]
 365  0045  0DFF        	or a,255
 365  0046  0080     E  	mov re,a
 365  0047  0700     R  	mov a,_mcu_dp_fault_update_2[0]
 365  0048  0DFF        	or a,255
 365  0049  0080     E  	mov rd,a
 365  004A  0700     E  	mov a,rd
 365  004B  0AFF        	sub a,255
 365  004C  0700     E  	mov a,re
 365  004D  08FF        	sbc a,255
 365  004E  0700     E  	mov a,rf
 365  004F  0800        	sbc a,0
 365  0050  0700     E  	mov a,rg
 365  0051  0800        	sbc a,0
 365  0052  3B0A        	snz cz
 365  0053  2800     R  	jmp _L81
 366  0054              #line 366 "E:\Project\17.HT66F4560_EVM_V1.0\CODE\HT66F4560_TuYa_FishTank_V1.0\mcu_sdk\mcu_api.c"
 366  0054  0F02        	mov a,2
 366  0055  0080     E  	mov _set_wifi_uart_byte_2[2],a
 366  0056  2800     R  	jmp _L86
 366  0057              _L81:
 370  0057              #line 370 "E:\Project\17.HT66F4560_EVM_V1.0\CODE\HT66F4560_TuYa_FishTank_V1.0\mcu_sdk\mcu_api.c"
 370  0057  0F04        	mov a,4
 370  0058  0080     E  	mov _set_wifi_uart_byte_2[2],a
 370  0059  0700     E  	mov a,ra
 370  005A  0080     E  	mov _set_wifi_uart_byte_2[0],a
 370  005B  0700     E  	mov a,rb
 370  005C  0080     E  	mov _set_wifi_uart_byte_2[1],a
 370  005D              	fcall _set_wifi_uart_byte
 371  0064              #line 371 "E:\Project\17.HT66F4560_EVM_V1.0\CODE\HT66F4560_TuYa_FishTank_V1.0\mcu_sdk\mcu_api.c"
 371  0064  0700     R  	mov a,_mcu_dp_fault_update_2[3]
 371  0065  0080     E  	mov _set_wifi_uart_byte_2[2],a
 371  0066  0700     E  	mov a,ra
 371  0067  0080     E  	mov _set_wifi_uart_byte_2[0],a
 371  0068  0700     E  	mov a,rb
 371  0069  0080     E  	mov _set_wifi_uart_byte_2[1],a
 371  006A              	fcall _set_wifi_uart_byte
 372  0071              #line 372 "E:\Project\17.HT66F4560_EVM_V1.0\CODE\HT66F4560_TuYa_FishTank_V1.0\mcu_sdk\mcu_api.c"
 372  0071  0700     R  	mov a,_mcu_dp_fault_update_2[2]
 372  0072  0080     E  	mov _set_wifi_uart_byte_2[2],a
 372  0073              _L86:
 372  0073  0700     E  	mov a,ra
 372  0074  0080     E  	mov _set_wifi_uart_byte_2[0],a
 372  0075  0700     E  	mov a,rb
 372  0076  0080     E  	mov _set_wifi_uart_byte_2[1],a
 372  0077              	fcall _set_wifi_uart_byte
 373  007E              #line 373 "E:\Project\17.HT66F4560_EVM_V1.0\CODE\HT66F4560_TuYa_FishTank_V1.0\mcu_sdk\mcu_api.c"
 373  007E  0700     R  	mov a,_mcu_dp_fault_update_2[1]
"File: mcu_api.c     Assembler  Version HGASM0202      Page 22

 373  007F  0080     E  	mov _set_wifi_uart_byte_2[2],a
 373  0080              _L85:
 373  0080  0700     E  	mov a,ra
 373  0081  0080     E  	mov _set_wifi_uart_byte_2[0],a
 373  0082  0700     E  	mov a,rb
 373  0083  0080     E  	mov _set_wifi_uart_byte_2[1],a
 373  0084              	fcall _set_wifi_uart_byte
 374  008B              #line 374 "E:\Project\17.HT66F4560_EVM_V1.0\CODE\HT66F4560_TuYa_FishTank_V1.0\mcu_sdk\mcu_api.c"
 374  008B  0700     R  	mov a,_mcu_dp_fault_update_2[0]
 374  008C  0080     E  	mov _set_wifi_uart_byte_2[2],a
 374  008D  0700     E  	mov a,ra
 374  008E  0080     E  	mov _set_wifi_uart_byte_2[0],a
 374  008F  0700     E  	mov a,rb
 374  0090  0080     E  	mov _set_wifi_uart_byte_2[1],a
 374  0091              	fcall _set_wifi_uart_byte
 377  0098              #line 377 "E:\Project\17.HT66F4560_EVM_V1.0\CODE\HT66F4560_TuYa_FishTank_V1.0\mcu_sdk\mcu_api.c"
 377  0098  0700     E  	mov a,ra
 377  0099  0080     E  	mov _wifi_uart_write_frame_2[1],a
 377  009A  0700     E  	mov a,rb
 377  009B  0080     E  	mov _wifi_uart_write_frame_2[2],a
 377  009C  0F03        	mov a,3
 377  009D  0080     E  	mov _wifi_uart_write_frame_2[0],a
 377  009E  0F07        	mov a,7
 377  009F              	fcall _wifi_uart_write_frame
 377  00A6              _L78:
 380  00A6              #line 380 "E:\Project\17.HT66F4560_EVM_V1.0\CODE\HT66F4560_TuYa_FishTank_V1.0\mcu_sdk\mcu_api.c"
 380  00A6  0F01        	mov a,1
 380  00A7  0003        	ret
 380  00A8              _mcu_dp_fault_update endp
 380  00A8              #line 380 "E:\Project\17.HT66F4560_EVM_V1.0\CODE\HT66F4560_TuYa_FishTank_V1.0\mcu_sdk\mcu_api.c"
 380  00A8              #pragma debug scope 1 1
 380  00A8              public _mcu_get_dp_download_bool
 380  00A8              #pragma debug scope 16 1
 575  00A8              #line 575 "E:\Project\17.HT66F4560_EVM_V1.0\CODE\HT66F4560_TuYa_FishTank_V1.0\mcu_sdk\mcu_api.c"
 575  0000              _mcu_get_dp_download_bool .section 'code'
 575  0000              _mcu_get_dp_download_bool proc
 575  0000              public _mcu_get_dp_download_bool_2
 575  0000  0004[           local _mcu_get_dp_download_bool_2 db 4 dup(?)	; 4,0
            00
            ]
 575  0004              #pragma debug pointer 53 8 16
 575  0004              #pragma debug pointer 53 8 16
 575  0004              #pragma debug variable 53 16 _mcu_get_dp_download_bool_2+0 "value"
 575  0004              #pragma debug variable 10 16 _mcu_get_dp_download_bool_2+2 "len"
 576  0004              #line 576 "E:\Project\17.HT66F4560_EVM_V1.0\CODE\HT66F4560_TuYa_FishTank_V1.0\mcu_sdk\mcu_api.c"
 576  0000  0700     R  	mov a,_mcu_get_dp_download_bool_2[0]
 576  0001  0083        	mov mp,a
 576  0002  0700     R  	mov a,_mcu_get_dp_download_bool_2[1]
 576  0003  0084        	mov sbp,a
 576  0004              	fcall _Crom2Prom
 576  000B  0080     E  	mov ra,a
 577  000C              #line 577 "E:\Project\17.HT66F4560_EVM_V1.0\CODE\HT66F4560_TuYa_FishTank_V1.0\mcu_sdk\mcu_api.c"
 577  000C  0700     E  	mov a,ra
 577  000D  0003        	ret
 577  000E              _mcu_get_dp_download_bool endp
 577  000E              #line 577 "E:\Project\17.HT66F4560_EVM_V1.0\CODE\HT66F4560_TuYa_FishTank_V1.0\mcu_sdk\mcu_api.c"
 577  000E              #pragma debug scope 1 1
 577  000E              public _mcu_get_dp_download_enum
 577  000E              #pragma debug scope 17 1
 587  000E              #line 587 "E:\Project\17.HT66F4560_EVM_V1.0\CODE\HT66F4560_TuYa_FishTank_V1.0\mcu_sdk\mcu_api.c"
"File: mcu_api.c     Assembler  Version HGASM0202      Page 23

 587  0000              _mcu_get_dp_download_enum .section 'code'
 587  0000              _mcu_get_dp_download_enum proc
 587  0000              public _mcu_get_dp_download_enum_2
 587  0000  0004[           local _mcu_get_dp_download_enum_2 db 4 dup(?)	; 4,0
            00
            ]
 587  0004              #pragma debug pointer 54 8 17
 587  0004              #pragma debug pointer 54 8 17
 587  0004              #pragma debug variable 54 17 _mcu_get_dp_download_enum_2+0 "value"
 587  0004              #pragma debug variable 10 17 _mcu_get_dp_download_enum_2+2 "len"
 588  0004              #line 588 "E:\Project\17.HT66F4560_EVM_V1.0\CODE\HT66F4560_TuYa_FishTank_V1.0\mcu_sdk\mcu_api.c"
 588  0000  0700     R  	mov a,_mcu_get_dp_download_enum_2[0]
 588  0001  0083        	mov mp,a
 588  0002  0700     R  	mov a,_mcu_get_dp_download_enum_2[1]
 588  0003  0084        	mov sbp,a
 588  0004              	fcall _Crom2Prom
 588  000B  0080     E  	mov ra,a
 589  000C              #line 589 "E:\Project\17.HT66F4560_EVM_V1.0\CODE\HT66F4560_TuYa_FishTank_V1.0\mcu_sdk\mcu_api.c"
 589  000C  0700     E  	mov a,ra
 589  000D  0003        	ret
 589  000E              _mcu_get_dp_download_enum endp
 589  000E              #line 589 "E:\Project\17.HT66F4560_EVM_V1.0\CODE\HT66F4560_TuYa_FishTank_V1.0\mcu_sdk\mcu_api.c"
 589  000E              #pragma debug scope 1 1
 589  000E              public _mcu_get_dp_download_value
 589  000E              #pragma debug scope 18 1
 599  000E              #line 599 "E:\Project\17.HT66F4560_EVM_V1.0\CODE\HT66F4560_TuYa_FishTank_V1.0\mcu_sdk\mcu_api.c"
 599  0000              _mcu_get_dp_download_value .section 'code'
 599  0000              _mcu_get_dp_download_value proc
 599  0000              public _mcu_get_dp_download_value_2
 599  0000  0004[           local _mcu_get_dp_download_value_2 db 4 dup(?)	; 4,0
            00
            ]
 599  0004              #pragma debug pointer 55 8 18
 599  0004              #pragma debug pointer 55 8 18
 599  0004              #pragma debug variable 55 18 _mcu_get_dp_download_value_2+0 "value"
 599  0004              #pragma debug variable 10 18 _mcu_get_dp_download_value_2+2 "len"
 600  0004              #line 600 "E:\Project\17.HT66F4560_EVM_V1.0\CODE\HT66F4560_TuYa_FishTank_V1.0\mcu_sdk\mcu_api.c"
 600  0000  0700     R  	mov a,_mcu_get_dp_download_value_2[0]
 600  0001  0080     R  	mov _byte_to_int_2[0],a
 600  0002  0700     R  	mov a,_mcu_get_dp_download_value_2[1]
 600  0003  0080     R  	mov _byte_to_int_2[1],a
 600  0004              	fcall _byte_to_int
 600  000B  0003        	ret
 600  000C              _mcu_get_dp_download_value endp
 600  000C              #line 600 "E:\Project\17.HT66F4560_EVM_V1.0\CODE\HT66F4560_TuYa_FishTank_V1.0\mcu_sdk\mcu_api.c"
 600  000C              #pragma debug scope 1 1
 600  000C              public _uart_receive_input
 600  000C              #pragma debug scope 19 1
 610  000C              #line 610 "E:\Project\17.HT66F4560_EVM_V1.0\CODE\HT66F4560_TuYa_FishTank_V1.0\mcu_sdk\mcu_api.c"
 610  0000              _uart_receive_input .section 'code'
 610  0000              _uart_receive_input proc
 610  0000  0003[           local _uart_receive_input_2 db 3 dup(?)	; 0,3
            00
            ]
 610  0000  0080     R  	mov _uart_receive_input_2[0],a
 610  0001              #pragma debug variable 8 19 _uart_receive_input_2+0 "value"
 613  0001              #line 613 "E:\Project\17.HT66F4560_EVM_V1.0\CODE\HT66F4560_TuYa_FishTank_V1.0\mcu_sdk\mcu_api.c"
 613  0001  0700     E  	mov a,_rx_buf_out[0]
 613  0002  0080     E  	mov rd,a
 613  0003  0700     E  	mov a,_rx_buf_out[1]
"File: mcu_api.c     Assembler  Version HGASM0202      Page 24

 613  0004  0080     E  	mov re,a
 613  0005  0700     E  	mov a,_rx_buf_in[0]
 613  0006  0080     E  	mov rb,a
 613  0007  0700     E  	mov a,_rx_buf_in[1]
 613  0008  0080     E  	mov rc,a
 613  0009  0700     E  	mov a,rd
 613  000A  0200     E  	sub a,rb
 613  000B  0080     E  	mov rf,a
 613  000C  0700     E  	mov a,re
 613  000D  1200     E  	sbc a,rc
 613  000E  0080     E  	mov rg,a
 613  000F  0700     E  	mov a,rf
 613  0010  0C01        	xor a,1
 613  0011  0500     E  	or a,rg
 613  0012  3D0A        	sz z
 613  0013  2800     R  	jmp _L90
 615  0014              #line 615 "E:\Project\17.HT66F4560_EVM_V1.0\CODE\HT66F4560_TuYa_FishTank_V1.0\mcu_sdk\mcu_api.c"
 615  0014  0700     E  	mov a,rd
 615  0015  0200     E  	sub a,rb
 615  0016  0700     E  	mov a,re
 615  0017  1200     E  	sbc a,rc
 615  0018  3C0A        	sz c
 615  0019  2800     R  	jmp _L92
 615  001A  0700     E  	mov a,rb
 615  001B  0280     E  	subm a,rd
 615  001C  0700     E  	mov a,rc
 615  001D  1280     E  	sbcm a,re
 615  001E  0F16        	mov a,22
 615  001F  0200     E  	sub a,rd
 615  0020  0F00        	mov a,0
 615  0021  1200     E  	sbc a,re
 615  0022  380A        	snz c
 615  0023  2800     R  	jmp _L90
 615  0024              _L92:
 619  0024              #line 619 "E:\Project\17.HT66F4560_EVM_V1.0\CODE\HT66F4560_TuYa_FishTank_V1.0\mcu_sdk\mcu_api.c"
 619  0024  0700     E  	mov a,rb
 619  0025  0A00     E  	sub a,low offset _wifi_uart_rx_buf[23]
 619  0026  0700     E  	mov a,rc
 619  0027  0800     E  	sbc a,high offset _wifi_uart_rx_buf[23]
 619  0028  380A        	snz c
 619  0029  2800     R  	jmp _L93
 620  002A              #line 620 "E:\Project\17.HT66F4560_EVM_V1.0\CODE\HT66F4560_TuYa_FishTank_V1.0\mcu_sdk\mcu_api.c"
 620  002A  0F00     E  	mov a,low offset _wifi_uart_rx_buf
 620  002B  0080     E  	mov _rx_buf_in[0],a
 620  002C  0F00     E  	mov a,high offset _wifi_uart_rx_buf
 620  002D  0080     E  	mov _rx_buf_in[1],a
 620  002E              _L93:
 623  002E              #line 623 "E:\Project\17.HT66F4560_EVM_V1.0\CODE\HT66F4560_TuYa_FishTank_V1.0\mcu_sdk\mcu_api.c"
 623  002E  0700     E  	mov a,_rx_buf_in[0]
 623  002F  0080     E  	mov rb,a
 623  0030  0700     E  	mov a,_rx_buf_in[1]
 623  0031  0080     E  	mov rc,a
 623  0032  0F01        	mov a,1
 623  0033  0300     E  	add a,rb
 623  0034  0080     E  	mov _rx_buf_in[0],a
 623  0035  0F00        	mov a,0
 623  0036  1300     E  	adc a,rc
 623  0037  0080     E  	mov _rx_buf_in[1],a
 623  0038  0700     E  	mov a,rb
 623  0039  0083        	mov mp,a
"File: mcu_api.c     Assembler  Version HGASM0202      Page 25

 623  003A  0700     E  	mov a,rc
 623  003B  0084        	mov sbp,a
 623  003C  0700     R  	mov a,_uart_receive_input_2[0]
 623  003D  0082        	mov ir,a
 623  003E              _L90:
 623  003E  0003        	ret
 623  003F              _uart_receive_input endp
 623  003F              #line 623 "E:\Project\17.HT66F4560_EVM_V1.0\CODE\HT66F4560_TuYa_FishTank_V1.0\mcu_sdk\mcu_api.c"
 623  003F              #pragma debug scope 1 1
 623  003F              public _uart_receive_buff_input
 623  003F              #pragma debug scope 20 1
 635  003F              #line 635 "E:\Project\17.HT66F4560_EVM_V1.0\CODE\HT66F4560_TuYa_FishTank_V1.0\mcu_sdk\mcu_api.c"
 635  0000              _uart_receive_buff_input .section 'code'
 635  0000              _uart_receive_buff_input proc
 635  0000              public _uart_receive_buff_input_2
 635  0000  0006[           local _uart_receive_buff_input_2 db 6 dup(?)	; 4,2
            00
            ]
 635  0006              #pragma debug pointer 56 8 20
 635  0006              #pragma debug pointer 56 8 20
 635  0006              #pragma debug variable 56 20 _uart_receive_buff_input_2+0 "value"
 635  0006              #pragma debug variable 10 20 _uart_receive_buff_input_2+2 "data_len"
 635  0006              #pragma debug variable 10 20 _uart_receive_buff_input_2+4 "i"
 639  0006              #line 639 "E:\Project\17.HT66F4560_EVM_V1.0\CODE\HT66F4560_TuYa_FishTank_V1.0\mcu_sdk\mcu_api.c"
 639  0000  1F00     R  	clr _uart_receive_buff_input_2[4]
 639  0001  1F00     R  	clr _uart_receive_buff_input_2[5]
 639  0002  2800     R  	jmp _L98
 639  0003              _L99:
 640  0003              #line 640 "E:\Project\17.HT66F4560_EVM_V1.0\CODE\HT66F4560_TuYa_FishTank_V1.0\mcu_sdk\mcu_api.c"
 640  0003  0700     R  	mov a,_uart_receive_buff_input_2[4]
 640  0004  0300     R  	add a,_uart_receive_buff_input_2[0]
 640  0005  0083        	mov mp,a
 640  0006  0700     R  	mov a,_uart_receive_buff_input_2[5]
 640  0007  1300     R  	adc a,_uart_receive_buff_input_2[1]
 640  0008  0084        	mov sbp,a
 640  0009              	fcall _Crom2Prom
 640  0010              	fcall _uart_receive_input
 639  0017              #line 639 "E:\Project\17.HT66F4560_EVM_V1.0\CODE\HT66F4560_TuYa_FishTank_V1.0\mcu_sdk\mcu_api.c"
 639  0017  1480     R  	inc _uart_receive_buff_input_2[4]
 639  0018  3D0A        	sz z
 639  0019  1480     R  	inc _uart_receive_buff_input_2[5]
 639  001A              _L98:
 639  001A  0700     R  	mov a,_uart_receive_buff_input_2[4]
 639  001B  0200     R  	sub a,_uart_receive_buff_input_2[2]
 639  001C  0700     R  	mov a,_uart_receive_buff_input_2[5]
 639  001D  1200     R  	sbc a,_uart_receive_buff_input_2[3]
 639  001E  3B0A        	snz cz
 639  001F  2800     R  	jmp _L99
 639  0020  0003        	ret
 639  0021              _uart_receive_buff_input endp
 639  0021              #line 639 "E:\Project\17.HT66F4560_EVM_V1.0\CODE\HT66F4560_TuYa_FishTank_V1.0\mcu_sdk\mcu_api.c"
 639  0021              #pragma debug scope 1 1
 639  0021              public _wifi_uart_service
 639  0021              #pragma debug scope 21 1
 651  0021              #line 651 "E:\Project\17.HT66F4560_EVM_V1.0\CODE\HT66F4560_TuYa_FishTank_V1.0\mcu_sdk\mcu_api.c"
 651  0000              _wifi_uart_service .section 'code'
 651  0000              _wifi_uart_service proc
 651  0000  0008[           local _wifi_uart_service_2 db 8 dup(?)	; 0,8
            00
            ]
"File: mcu_api.c     Assembler  Version HGASM0202      Page 26

 651  0000              _L101:
 657  0000              #line 657 "E:\Project\17.HT66F4560_EVM_V1.0\CODE\HT66F4560_TuYa_FishTank_V1.0\mcu_sdk\mcu_api.c"
 657  0000  0F1E        	mov a,30
 657  0001  0200     R  	sub a,___rx_in_1197[0]
 657  0002  0F00        	mov a,0
 657  0003  1200     R  	sbc a,___rx_in_1197[1]
 657  0004  3C0A        	sz c
 657  0005  2800     R  	jmp _L102
 657  0006              _L106:
 661  0006              #line 661 "E:\Project\17.HT66F4560_EVM_V1.0\CODE\HT66F4560_TuYa_FishTank_V1.0\mcu_sdk\mcu_api.c"
 661  0006  0F06        	mov a,6
 661  0007  0200     R  	sub a,___rx_in_1197[0]
 661  0008  0F00        	mov a,0
 661  0009  1200     R  	sbc a,___rx_in_1197[1]
 661  000A  3C0A        	sz c
 661  000B  2800     R  	jmp _L100
 661  000C  1F00     R  	clr _wifi_uart_service_2[0]
 661  000D  1F00     R  	clr _wifi_uart_service_2[1]
 661  000E  2800     R  	jmp _L107
 661  000F              _L102:
 657  000F              #line 657 "E:\Project\17.HT66F4560_EVM_V1.0\CODE\HT66F4560_TuYa_FishTank_V1.0\mcu_sdk\mcu_api.c"
 657  000F              	fcall _with_data_rxbuff
 657  0016  0080     E  	mov ra,a
 657  0017  1E00     E  	snz ra
 657  0018  2800     R  	jmp _L106
 658  0019              #line 658 "E:\Project\17.HT66F4560_EVM_V1.0\CODE\HT66F4560_TuYa_FishTank_V1.0\mcu_sdk\mcu_api.c"
 658  0019  0700     R  	mov a,___rx_in_1197[0]
 658  001A  0080     R  	mov _wifi_uart_service_2[0],a
 658  001B  0700     R  	mov a,___rx_in_1197[1]
 658  001C  0080     R  	mov _wifi_uart_service_2[1],a
 658  001D  0F01        	mov a,1
 658  001E  0300     R  	add a,_wifi_uart_service_2[0]
 658  001F  0080     R  	mov ___rx_in_1197[0],a
 658  0020  0F00        	mov a,0
 658  0021  1300     R  	adc a,_wifi_uart_service_2[1]
 658  0022  0080     R  	mov ___rx_in_1197[1],a
 658  0023              	fcall _take_byte_rxbuff
 658  002A  0080     E  	mov ra,a
 658  002B  0F00     E  	mov a,low offset _wifi_data_process_buf
 658  002C  0300     R  	add a,_wifi_uart_service_2[0]
 658  002D  0083        	mov mp,a
 658  002E  0F00     E  	mov a,high offset _wifi_data_process_buf
 658  002F  1300     R  	adc a,_wifi_uart_service_2[1]
 658  0030  0084        	mov sbp,a
 658  0031  0700     E  	mov a,ra
 658  0032  0082        	mov ir,a
 658  0033  2800     R  	jmp _L101
 658  0034              _L115:
 665  0034              #line 665 "E:\Project\17.HT66F4560_EVM_V1.0\CODE\HT66F4560_TuYa_FishTank_V1.0\mcu_sdk\mcu_api.c"
 665  0034  0F00     E  	mov a,low offset _wifi_data_process_buf
 665  0035  0300     R  	add a,_wifi_uart_service_2[0]
 665  0036  0080     E  	mov rd,a
 665  0037  0F00     E  	mov a,high offset _wifi_data_process_buf
 665  0038  1300     R  	adc a,_wifi_uart_service_2[1]
 665  0039  0080     E  	mov re,a
 665  003A  0700     E  	mov a,rd
 665  003B  0083        	mov mp,a
 665  003C  0700     E  	mov a,re
 665  003D  0084        	mov sbp,a
 665  003E              	fcall _Crom2Prom
"File: mcu_api.c     Assembler  Version HGASM0202      Page 27

 665  0045  0080     E  	mov ra,a
 666  0046              #line 666 "E:\Project\17.HT66F4560_EVM_V1.0\CODE\HT66F4560_TuYa_FishTank_V1.0\mcu_sdk\mcu_api.c"
 666  0046  0F01        	mov a,1
 666  0047  0300     R  	add a,_wifi_uart_service_2[0]
 666  0048  0080     R  	mov _wifi_uart_service_2[2],a
 666  0049  0F00        	mov a,0
 666  004A  1300     R  	adc a,_wifi_uart_service_2[1]
 666  004B  0080     R  	mov _wifi_uart_service_2[3],a
 665  004C              #line 665 "E:\Project\17.HT66F4560_EVM_V1.0\CODE\HT66F4560_TuYa_FishTank_V1.0\mcu_sdk\mcu_api.c"
 665  004C  0700     E  	mov a,ra
 665  004D  0A55        	sub a,85
 665  004E  3D0A        	sz z
 665  004F  2800     R  	jmp _L109
 665  0050              _L110:
 661  0050              #line 661 "E:\Project\17.HT66F4560_EVM_V1.0\CODE\HT66F4560_TuYa_FishTank_V1.0\mcu_sdk\mcu_api.c"
 661  0050  0700     R  	mov a,_wifi_uart_service_2[2]
 661  0051  0080     R  	mov _wifi_uart_service_2[0],a
 661  0052  0700     R  	mov a,_wifi_uart_service_2[3]
 661  0053  0080     R  	mov _wifi_uart_service_2[1],a
 661  0054              _L107:
 664  0054              #line 664 "E:\Project\17.HT66F4560_EVM_V1.0\CODE\HT66F4560_TuYa_FishTank_V1.0\mcu_sdk\mcu_api.c"
 664  0054  0700     R  	mov a,___rx_in_1197[0]
 664  0055  0200     R  	sub a,_wifi_uart_service_2[0]
 664  0056  0080     E  	mov rd,a
 664  0057  0700     R  	mov a,___rx_in_1197[1]
 664  0058  1200     R  	sbc a,_wifi_uart_service_2[1]
 664  0059  0080     E  	mov re,a
 664  005A  0700     E  	mov a,rd
 664  005B  0080     E  	mov rb,a
 664  005C  0700     E  	mov a,re
 664  005D  0080     E  	mov rc,a
 664  005E  0F06        	mov a,6
 664  005F  0200     E  	sub a,rd
 664  0060  0F00        	mov a,0
 664  0061  1200     E  	sbc a,re
 664  0062  380A        	snz c
 664  0063  2800     R  	jmp _L115
 664  0064  2800     R  	jmp _L116
 664  0065              _L109:
 670  0065              #line 670 "E:\Project\17.HT66F4560_EVM_V1.0\CODE\HT66F4560_TuYa_FishTank_V1.0\mcu_sdk\mcu_api.c"
 670  0065  0F00     E  	mov a,low offset _wifi_data_process_buf
 670  0066  0300     R  	add a,_wifi_uart_service_2[2]
 670  0067  0083        	mov mp,a
 670  0068  0F00     E  	mov a,high offset _wifi_data_process_buf
 670  0069  1300     R  	adc a,_wifi_uart_service_2[3]
 670  006A  0084        	mov sbp,a
 670  006B              	fcall _Crom2Prom
 670  0072  0080     E  	mov ra,a
 670  0073  0700     E  	mov a,ra
 670  0074  0AAA        	sub a,170
 670  0075  390A        	snz z
 670  0076  2800     R  	jmp _L110
 675  0077              #line 675 "E:\Project\17.HT66F4560_EVM_V1.0\CODE\HT66F4560_TuYa_FishTank_V1.0\mcu_sdk\mcu_api.c"
 675  0077  0F02        	mov a,2
 675  0078  0300     R  	add a,_wifi_uart_service_2[0]
 675  0079  0080     R  	mov _wifi_uart_service_2[2],a
 675  007A  0F00        	mov a,0
 675  007B  1300     R  	adc a,_wifi_uart_service_2[1]
 675  007C  0080     R  	mov _wifi_uart_service_2[3],a
 675  007D  0F00     E  	mov a,low offset _wifi_data_process_buf
"File: mcu_api.c     Assembler  Version HGASM0202      Page 28

 675  007E  0300     R  	add a,_wifi_uart_service_2[2]
 675  007F  0083        	mov mp,a
 675  0080  0F00     E  	mov a,high offset _wifi_data_process_buf
 675  0081  1300     R  	adc a,_wifi_uart_service_2[3]
 675  0082  0084        	mov sbp,a
 675  0083              	fcall _Crom2Prom
 675  008A  0080     E  	mov ra,a
 675  008B  1080     E  	sz ra
 675  008C  2800     R  	jmp _L110
 680  008D              #line 680 "E:\Project\17.HT66F4560_EVM_V1.0\CODE\HT66F4560_TuYa_FishTank_V1.0\mcu_sdk\mcu_api.c"
 680  008D  0F00     E  	mov a,low (offset _wifi_data_process_buf+4)
 680  008E  0300     R  	add a,_wifi_uart_service_2[0]
 680  008F  0083        	mov mp,a
 680  0090  0F00     E  	mov a,high (offset _wifi_data_process_buf+4)
 680  0091  1300     R  	adc a,_wifi_uart_service_2[1]
 680  0092  0084        	mov sbp,a
 680  0093              	fcall _Crom2Prom
 680  009A  0080     E  	mov ra,a
 681  009B              #line 681 "E:\Project\17.HT66F4560_EVM_V1.0\CODE\HT66F4560_TuYa_FishTank_V1.0\mcu_sdk\mcu_api.c"
 681  009B  0F00     E  	mov a,low (offset _wifi_data_process_buf+5)
 681  009C  0300     R  	add a,_wifi_uart_service_2[0]
 681  009D  0083        	mov mp,a
 681  009E  0F00     E  	mov a,high (offset _wifi_data_process_buf+5)
 681  009F  1300     R  	adc a,_wifi_uart_service_2[1]
 681  00A0  0084        	mov sbp,a
 681  00A1              	fcall _Crom2Prom
 681  00A8  0080     E  	mov rh,a
 680  00A9              #line 680 "E:\Project\17.HT66F4560_EVM_V1.0\CODE\HT66F4560_TuYa_FishTank_V1.0\mcu_sdk\mcu_api.c"
 680  00A9  0700     E  	mov a,ra
 680  00AA  0080     R  	mov _wifi_uart_service_2[5],a
 680  00AB  1F00     R  	clr _wifi_uart_service_2[4]
 681  00AC              #line 681 "E:\Project\17.HT66F4560_EVM_V1.0\CODE\HT66F4560_TuYa_FishTank_V1.0\mcu_sdk\mcu_api.c"
 681  00AC  0700     E  	mov a,rh
 681  00AD  0300     R  	add a,_wifi_uart_service_2[4]
 681  00AE  0080     R  	mov _wifi_uart_service_2[6],a
 681  00AF  1F05        	clr acc
 681  00B0  1300     R  	adc a,_wifi_uart_service_2[5]
 681  00B1  0080     R  	mov _wifi_uart_service_2[7],a
 681  00B2  0F07        	mov a,7
 681  00B3  0300     R  	add a,_wifi_uart_service_2[6]
 681  00B4  0080     R  	mov _wifi_uart_service_2[2],a
 681  00B5  0F00        	mov a,0
 681  00B6  1300     R  	adc a,_wifi_uart_service_2[7]
 681  00B7  0080     R  	mov _wifi_uart_service_2[3],a
 682  00B8              #line 682 "E:\Project\17.HT66F4560_EVM_V1.0\CODE\HT66F4560_TuYa_FishTank_V1.0\mcu_sdk\mcu_api.c"
 682  00B8  0F26        	mov a,38
 682  00B9  0200     R  	sub a,_wifi_uart_service_2[2]
 682  00BA  0F00        	mov a,0
 682  00BB  1200     R  	sbc a,_wifi_uart_service_2[3]
 682  00BC  380A        	snz c
 682  00BD  2800     R  	jmp _L118
 687  00BE              #line 687 "E:\Project\17.HT66F4560_EVM_V1.0\CODE\HT66F4560_TuYa_FishTank_V1.0\mcu_sdk\mcu_api.c"
 687  00BE  0700     E  	mov a,rb
 687  00BF  0200     R  	sub a,_wifi_uart_service_2[2]
 687  00C0  0700     E  	mov a,rc
 687  00C1  1200     R  	sbc a,_wifi_uart_service_2[3]
 687  00C2  3C0A        	sz c
 687  00C3  2800     R  	jmp _L112
 687  00C4              _L116:
 703  00C4              #line 703 "E:\Project\17.HT66F4560_EVM_V1.0\CODE\HT66F4560_TuYa_FishTank_V1.0\mcu_sdk\mcu_api.c"
"File: mcu_api.c     Assembler  Version HGASM0202      Page 29

 703  00C4  0700     E  	mov a,rb
 703  00C5  0080     R  	mov ___rx_in_1197[0],a
 703  00C6  0700     E  	mov a,rc
 703  00C7  0080     R  	mov ___rx_in_1197[1],a
 704  00C8              #line 704 "E:\Project\17.HT66F4560_EVM_V1.0\CODE\HT66F4560_TuYa_FishTank_V1.0\mcu_sdk\mcu_api.c"
 704  00C8  0700     E  	mov a,rb
 704  00C9  0500     E  	or a,rc
 704  00CA  3D0A        	sz z
 704  00CB  2800     R  	jmp _L100
 705  00CC              #line 705 "E:\Project\17.HT66F4560_EVM_V1.0\CODE\HT66F4560_TuYa_FishTank_V1.0\mcu_sdk\mcu_api.c"
 705  00CC  0700     E  	mov a,rb
 705  00CD  0080     R  	mov _my_memcpy_2[4],a
 705  00CE  0700     E  	mov a,rc
 705  00CF  0080     R  	mov _my_memcpy_2[5],a
 705  00D0  0F00     E  	mov a,low offset _wifi_data_process_buf
 705  00D1  0300     R  	add a,_wifi_uart_service_2[0]
 705  00D2  0080     R  	mov _my_memcpy_2[2],a
 705  00D3  0F00     E  	mov a,high offset _wifi_data_process_buf
 705  00D4  1300     R  	adc a,_wifi_uart_service_2[1]
 705  00D5  0080     R  	mov _my_memcpy_2[3],a
 705  00D6  0F00     E  	mov a,low offset _wifi_data_process_buf
 705  00D7  0080     R  	mov _my_memcpy_2[0],a
 705  00D8  0F00     E  	mov a,high offset _wifi_data_process_buf
 705  00D9  0080     R  	mov _my_memcpy_2[1],a
 705  00DA              	fcall _my_memcpy
 705  00E1  2800     R  	jmp _L100
 705  00E2              _L112:
 692  00E2              #line 692 "E:\Project\17.HT66F4560_EVM_V1.0\CODE\HT66F4560_TuYa_FishTank_V1.0\mcu_sdk\mcu_api.c"
 692  00E2  0F06        	mov a,6
 692  00E3  0300     R  	add a,_wifi_uart_service_2[6]
 692  00E4  0080     E  	mov _get_check_sum_2[2],a
 692  00E5  0F00        	mov a,0
 692  00E6  1300     R  	adc a,_wifi_uart_service_2[7]
 692  00E7  0080     E  	mov _get_check_sum_2[3],a
 692  00E8  0700     E  	mov a,rd
 692  00E9  0080     E  	mov _get_check_sum_2[0],a
 692  00EA  0700     E  	mov a,re
 692  00EB  0080     E  	mov _get_check_sum_2[1],a
 692  00EC              	fcall _get_check_sum
 692  00F3  0080     E  	mov rb,a
 692  00F4  0700     R  	mov a,_wifi_uart_service_2[0]
 692  00F5  0380     R  	addm a,_wifi_uart_service_2[2]
 692  00F6  0700     R  	mov a,_wifi_uart_service_2[1]
 692  00F7  1380     R  	adcm a,_wifi_uart_service_2[3]
 692  00F8  0F00     E  	mov a,low (offset _wifi_data_process_buf-1)
 692  00F9  0300     R  	add a,_wifi_uart_service_2[2]
 692  00FA  0083        	mov mp,a
 692  00FB  0F00     E  	mov a,high (offset _wifi_data_process_buf-1)
 692  00FC  1300     R  	adc a,_wifi_uart_service_2[3]
 692  00FD  0084        	mov sbp,a
 692  00FE              	fcall _Crom2Prom
 692  0105  0080     E  	mov ra,a
 692  0106  0700     E  	mov a,rb
 692  0107  0200     E  	sub a,ra
 692  0108  3D0A        	sz z
 692  0109  2800     R  	jmp _L114
 692  010A              _L118:
 695  010A              #line 695 "E:\Project\17.HT66F4560_EVM_V1.0\CODE\HT66F4560_TuYa_FishTank_V1.0\mcu_sdk\mcu_api.c"
 695  010A  0F03        	mov a,3
 695  010B  0300     R  	add a,_wifi_uart_service_2[0]
"File: mcu_api.c     Assembler  Version HGASM0202      Page 30

 695  010C  0080     R  	mov _wifi_uart_service_2[2],a
 695  010D  0F00        	mov a,0
 695  010E  1300     R  	adc a,_wifi_uart_service_2[1]
 695  010F  0080     R  	mov _wifi_uart_service_2[3],a
 696  0110              #line 696 "E:\Project\17.HT66F4560_EVM_V1.0\CODE\HT66F4560_TuYa_FishTank_V1.0\mcu_sdk\mcu_api.c"
 696  0110  2800     R  	jmp _L110
 696  0111              _L114:
 699  0111              #line 699 "E:\Project\17.HT66F4560_EVM_V1.0\CODE\HT66F4560_TuYa_FishTank_V1.0\mcu_sdk\mcu_api.c"
 699  0111  0700     R  	mov a,_wifi_uart_service_2[0]
 699  0112  0080     E  	mov _data_handle_2[0],a
 699  0113  0700     R  	mov a,_wifi_uart_service_2[1]
 699  0114  0080     E  	mov _data_handle_2[1],a
 699  0115              	fcall _data_handle
 699  011C  2800     R  	jmp _L110
 699  011D              _L100:
 699  011D  0003        	ret
 699  011E              _wifi_uart_service endp
 699  011E              #line 699 "E:\Project\17.HT66F4560_EVM_V1.0\CODE\HT66F4560_TuYa_FishTank_V1.0\mcu_sdk\mcu_api.c"
 699  011E              #pragma debug scope 1 1
 699  011E              public _wifi_protocol_init
 699  011E              #pragma debug scope 22 1
 716  011E              #line 716 "E:\Project\17.HT66F4560_EVM_V1.0\CODE\HT66F4560_TuYa_FishTank_V1.0\mcu_sdk\mcu_api.c"
 716  0000              _wifi_protocol_init .section 'code'
 716  0000              _wifi_protocol_init proc
 718  0000              #line 718 "E:\Project\17.HT66F4560_EVM_V1.0\CODE\HT66F4560_TuYa_FishTank_V1.0\mcu_sdk\mcu_api.c"
 718  0000  0F00     E  	mov a,low offset _wifi_uart_rx_buf
 718  0001  0080     E  	mov _rx_buf_in[0],a
 718  0002  0F00     E  	mov a,high offset _wifi_uart_rx_buf
 718  0003  0080     E  	mov _rx_buf_in[1],a
 719  0004              #line 719 "E:\Project\17.HT66F4560_EVM_V1.0\CODE\HT66F4560_TuYa_FishTank_V1.0\mcu_sdk\mcu_api.c"
 719  0004  0F00     E  	mov a,low offset _wifi_uart_rx_buf
 719  0005  0080     E  	mov _rx_buf_out[0],a
 719  0006  0F00     E  	mov a,high offset _wifi_uart_rx_buf
 719  0007  0080     E  	mov _rx_buf_out[1],a
 721  0008              #line 721 "E:\Project\17.HT66F4560_EVM_V1.0\CODE\HT66F4560_TuYa_FishTank_V1.0\mcu_sdk\mcu_api.c"
 721  0008  1F00     E  	clr _stop_update_flag[0]
 724  0009              #line 724 "E:\Project\17.HT66F4560_EVM_V1.0\CODE\HT66F4560_TuYa_FishTank_V1.0\mcu_sdk\mcu_api.c"
 724  0009  1F80     E  	set _wifi_work_state[0]
 724  000A  0003        	ret
 724  000B              _wifi_protocol_init endp
 724  000B              #line 724 "E:\Project\17.HT66F4560_EVM_V1.0\CODE\HT66F4560_TuYa_FishTank_V1.0\mcu_sdk\mcu_api.c"
 724  000B              #pragma debug scope 1 1
 724  000B              public _mcu_get_reset_wifi_flag
 724  000B              #pragma debug scope 23 1
 741  000B              #line 741 "E:\Project\17.HT66F4560_EVM_V1.0\CODE\HT66F4560_TuYa_FishTank_V1.0\mcu_sdk\mcu_api.c"
 741  0000              _mcu_get_reset_wifi_flag .section 'code'
 741  0000              _mcu_get_reset_wifi_flag proc
 742  0000              #line 742 "E:\Project\17.HT66F4560_EVM_V1.0\CODE\HT66F4560_TuYa_FishTank_V1.0\mcu_sdk\mcu_api.c"
 742  0000  0700     E  	mov a,_reset_wifi_flag[0]
 742  0001  0080     E  	mov ra,a
 743  0002              #line 743 "E:\Project\17.HT66F4560_EVM_V1.0\CODE\HT66F4560_TuYa_FishTank_V1.0\mcu_sdk\mcu_api.c"
 743  0002  0700     E  	mov a,ra
 743  0003  0003        	ret
 743  0004              _mcu_get_reset_wifi_flag endp
 743  0004              #line 743 "E:\Project\17.HT66F4560_EVM_V1.0\CODE\HT66F4560_TuYa_FishTank_V1.0\mcu_sdk\mcu_api.c"
 743  0004              #pragma debug scope 1 1
 743  0004              public _mcu_reset_wifi
 743  0004              #pragma debug scope 24 1
 753  0004              #line 753 "E:\Project\17.HT66F4560_EVM_V1.0\CODE\HT66F4560_TuYa_FishTank_V1.0\mcu_sdk\mcu_api.c"
 753  0000              _mcu_reset_wifi .section 'code'
"File: mcu_api.c     Assembler  Version HGASM0202      Page 31

 753  0000              _mcu_reset_wifi proc
 754  0000              #line 754 "E:\Project\17.HT66F4560_EVM_V1.0\CODE\HT66F4560_TuYa_FishTank_V1.0\mcu_sdk\mcu_api.c"
 754  0000  1F00     E  	clr _reset_wifi_flag[0]
 756  0001              #line 756 "E:\Project\17.HT66F4560_EVM_V1.0\CODE\HT66F4560_TuYa_FishTank_V1.0\mcu_sdk\mcu_api.c"
 756  0001  1F00     E  	clr _wifi_uart_write_frame_2[1]
 756  0002  1F00     E  	clr _wifi_uart_write_frame_2[2]
 756  0003  0F03        	mov a,3
 756  0004  0080     E  	mov _wifi_uart_write_frame_2[0],a
 756  0005  0F04        	mov a,4
 756  0006              	fcall _wifi_uart_write_frame
 756  000D  0003        	ret
 756  000E              _mcu_reset_wifi endp
 756  000E              #line 756 "E:\Project\17.HT66F4560_EVM_V1.0\CODE\HT66F4560_TuYa_FishTank_V1.0\mcu_sdk\mcu_api.c"
 756  000E              #pragma debug scope 1 1
 756  000E              public _mcu_get_wifimode_flag
 756  000E              #pragma debug scope 25 1
 769  000E              #line 769 "E:\Project\17.HT66F4560_EVM_V1.0\CODE\HT66F4560_TuYa_FishTank_V1.0\mcu_sdk\mcu_api.c"
 769  0000              _mcu_get_wifimode_flag .section 'code'
 769  0000              _mcu_get_wifimode_flag proc
 770  0000              #line 770 "E:\Project\17.HT66F4560_EVM_V1.0\CODE\HT66F4560_TuYa_FishTank_V1.0\mcu_sdk\mcu_api.c"
 770  0000  0700     E  	mov a,_set_wifimode_flag[0]
 770  0001  0080     E  	mov ra,a
 771  0002              #line 771 "E:\Project\17.HT66F4560_EVM_V1.0\CODE\HT66F4560_TuYa_FishTank_V1.0\mcu_sdk\mcu_api.c"
 771  0002  0700     E  	mov a,ra
 771  0003  0003        	ret
 771  0004              _mcu_get_wifimode_flag endp
 771  0004              #line 771 "E:\Project\17.HT66F4560_EVM_V1.0\CODE\HT66F4560_TuYa_FishTank_V1.0\mcu_sdk\mcu_api.c"
 771  0004              #pragma debug scope 1 1
 771  0004              public _mcu_set_wifi_mode
 771  0004              #pragma debug scope 26 1
 784  0004              #line 784 "E:\Project\17.HT66F4560_EVM_V1.0\CODE\HT66F4560_TuYa_FishTank_V1.0\mcu_sdk\mcu_api.c"
 784  0000              _mcu_set_wifi_mode .section 'code'
 784  0000              _mcu_set_wifi_mode proc
 784  0000  00              local _mcu_set_wifi_mode_2 db 1 dup(?)	; 0,1
 784  0000  0080     E  	mov ra,a
 784  0001              #pragma debug variable 8 26 _mcu_set_wifi_mode_2+0 "mode"
 787  0001              #line 787 "E:\Project\17.HT66F4560_EVM_V1.0\CODE\HT66F4560_TuYa_FishTank_V1.0\mcu_sdk\mcu_api.c"
 787  0001  1F00     E  	clr _set_wifimode_flag[0]
 789  0002              #line 789 "E:\Project\17.HT66F4560_EVM_V1.0\CODE\HT66F4560_TuYa_FishTank_V1.0\mcu_sdk\mcu_api.c"
 789  0002  0700     E  	mov a,ra
 789  0003  0080     E  	mov _set_wifi_uart_byte_2[2],a
 789  0004  1F00     E  	clr _set_wifi_uart_byte_2[0]
 789  0005  1F00     E  	clr _set_wifi_uart_byte_2[1]
 789  0006              	fcall _set_wifi_uart_byte
 791  000D              #line 791 "E:\Project\17.HT66F4560_EVM_V1.0\CODE\HT66F4560_TuYa_FishTank_V1.0\mcu_sdk\mcu_api.c"
 791  000D  0700     E  	mov a,ra
 791  000E  0080     E  	mov _wifi_uart_write_frame_2[1],a
 791  000F  1F00     E  	clr _wifi_uart_write_frame_2[2]
 791  0010  0F03        	mov a,3
 791  0011  0080     E  	mov _wifi_uart_write_frame_2[0],a
 791  0012  0F05        	mov a,5
 791  0013              	fcall _wifi_uart_write_frame
 791  001A  0003        	ret
 791  001B              _mcu_set_wifi_mode endp
 791  001B              #line 791 "E:\Project\17.HT66F4560_EVM_V1.0\CODE\HT66F4560_TuYa_FishTank_V1.0\mcu_sdk\mcu_api.c"
 791  001B              #pragma debug scope 1 1
 791  001B              public _mcu_get_wifi_work_state
 791  001B              #pragma debug scope 27 1
 808  001B              #line 808 "E:\Project\17.HT66F4560_EVM_V1.0\CODE\HT66F4560_TuYa_FishTank_V1.0\mcu_sdk\mcu_api.c"
 808  0000              _mcu_get_wifi_work_state .section 'code'
"File: mcu_api.c     Assembler  Version HGASM0202      Page 32

 808  0000              _mcu_get_wifi_work_state proc
 809  0000              #line 809 "E:\Project\17.HT66F4560_EVM_V1.0\CODE\HT66F4560_TuYa_FishTank_V1.0\mcu_sdk\mcu_api.c"
 809  0000  0700     E  	mov a,_wifi_work_state[0]
 809  0001  0080     E  	mov ra,a
 810  0002              #line 810 "E:\Project\17.HT66F4560_EVM_V1.0\CODE\HT66F4560_TuYa_FishTank_V1.0\mcu_sdk\mcu_api.c"
 810  0002  0700     E  	mov a,ra
 810  0003  0003        	ret
 810  0004              _mcu_get_wifi_work_state endp
 810  0004              #line 810 "E:\Project\17.HT66F4560_EVM_V1.0\CODE\HT66F4560_TuYa_FishTank_V1.0\mcu_sdk\mcu_api.c"
 810  0004              #pragma debug scope 1 1
 810  0004              public _mcu_get_system_time
 810  0004              #pragma debug scope 28 1
 834  0004              #line 834 "E:\Project\17.HT66F4560_EVM_V1.0\CODE\HT66F4560_TuYa_FishTank_V1.0\mcu_sdk\mcu_api.c"
 834  0000              _mcu_get_system_time .section 'code'
 834  0000              _mcu_get_system_time proc
 835  0000              #line 835 "E:\Project\17.HT66F4560_EVM_V1.0\CODE\HT66F4560_TuYa_FishTank_V1.0\mcu_sdk\mcu_api.c"
 835  0000  1F00     E  	clr _wifi_uart_write_frame_2[1]
 835  0001  1F00     E  	clr _wifi_uart_write_frame_2[2]
 835  0002  0F03        	mov a,3
 835  0003  0080     E  	mov _wifi_uart_write_frame_2[0],a
 835  0004  0F1C        	mov a,28
 835  0005              	fcall _wifi_uart_write_frame
 835  000C  0003        	ret
 835  000D              _mcu_get_system_time endp
 835  000D              #line 835 "E:\Project\17.HT66F4560_EVM_V1.0\CODE\HT66F4560_TuYa_FishTank_V1.0\mcu_sdk\mcu_api.c"
 835  000D              #pragma debug scope 1 1
 835  000D              public _mcu_start_wifitest
 835  000D              #pragma debug scope 29 1
 847  000D              #line 847 "E:\Project\17.HT66F4560_EVM_V1.0\CODE\HT66F4560_TuYa_FishTank_V1.0\mcu_sdk\mcu_api.c"
 847  0000              _mcu_start_wifitest .section 'code'
 847  0000              _mcu_start_wifitest proc
 848  0000              #line 848 "E:\Project\17.HT66F4560_EVM_V1.0\CODE\HT66F4560_TuYa_FishTank_V1.0\mcu_sdk\mcu_api.c"
 848  0000  1F00     E  	clr _wifi_uart_write_frame_2[1]
 848  0001  1F00     E  	clr _wifi_uart_write_frame_2[2]
 848  0002  0F03        	mov a,3
 848  0003  0080     E  	mov _wifi_uart_write_frame_2[0],a
 848  0004  0F0E        	mov a,14
 848  0005              	fcall _wifi_uart_write_frame
 848  000C  0003        	ret
 848  000D              _mcu_start_wifitest endp
 848  000D              #line 848 "E:\Project\17.HT66F4560_EVM_V1.0\CODE\HT66F4560_TuYa_FishTank_V1.0\mcu_sdk\mcu_api.c"
 848  000D              #pragma debug scope 1 1
 848  000D              public _mcu_get_wifi_connect_status
 848  000D              #pragma debug scope 30 1
 873  000D              #line 873 "E:\Project\17.HT66F4560_EVM_V1.0\CODE\HT66F4560_TuYa_FishTank_V1.0\mcu_sdk\mcu_api.c"
 873  0000              _mcu_get_wifi_connect_status .section 'code'
 873  0000              _mcu_get_wifi_connect_status proc
 874  0000              #line 874 "E:\Project\17.HT66F4560_EVM_V1.0\CODE\HT66F4560_TuYa_FishTank_V1.0\mcu_sdk\mcu_api.c"
 874  0000  1F00     E  	clr _wifi_uart_write_frame_2[1]
 874  0001  1F00     E  	clr _wifi_uart_write_frame_2[2]
 874  0002  0F03        	mov a,3
 874  0003  0080     E  	mov _wifi_uart_write_frame_2[0],a
 874  0004  0F2B        	mov a,43
 874  0005              	fcall _wifi_uart_write_frame
 874  000C  0003        	ret
 874  000D              _mcu_get_wifi_connect_status endp
 874  000D              #line 874 "E:\Project\17.HT66F4560_EVM_V1.0\CODE\HT66F4560_TuYa_FishTank_V1.0\mcu_sdk\mcu_api.c"
 874  000D              #pragma debug scope 1 1
 874  000D              public _open_module_time_serve
 874  000D              #pragma debug scope 31 1
"File: mcu_api.c     Assembler  Version HGASM0202      Page 33

1062  000D              #line 1062 "E:\Project\17.HT66F4560_EVM_V1.0\CODE\HT66F4560_TuYa_FishTank_V1.0\mcu_sdk\mcu_api.c"
1062  0000              _open_module_time_serve .section 'code'
1062  0000              _open_module_time_serve proc
1062  0000  00              local _open_module_time_serve_2 db 1 dup(?)	; 0,1
1062  0000  0080     R  	mov _open_module_time_serve_2[0],a
1062  0001              #pragma debug variable 8 31 _open_module_time_serve_2+0 "time_type"
1064  0001              #line 1064 "E:\Project\17.HT66F4560_EVM_V1.0\CODE\HT66F4560_TuYa_FishTank_V1.0\mcu_sdk\mcu_api.c"
1064  0001  0F01        	mov a,1
1064  0002  0080     E  	mov _set_wifi_uart_byte_2[2],a
1064  0003  1F00     E  	clr _set_wifi_uart_byte_2[0]
1064  0004  1F00     E  	clr _set_wifi_uart_byte_2[1]
1064  0005              	fcall _set_wifi_uart_byte
1065  000C              #line 1065 "E:\Project\17.HT66F4560_EVM_V1.0\CODE\HT66F4560_TuYa_FishTank_V1.0\mcu_sdk\mcu_api.c"
1065  000C  0700     R  	mov a,_open_module_time_serve_2[0]
1065  000D  0080     E  	mov _set_wifi_uart_byte_2[2],a
1065  000E  0700     E  	mov a,ra
1065  000F  0080     E  	mov _set_wifi_uart_byte_2[0],a
1065  0010  0700     E  	mov a,rb
1065  0011  0080     E  	mov _set_wifi_uart_byte_2[1],a
1065  0012              	fcall _set_wifi_uart_byte
1066  0019              #line 1066 "E:\Project\17.HT66F4560_EVM_V1.0\CODE\HT66F4560_TuYa_FishTank_V1.0\mcu_sdk\mcu_api.c"
1066  0019  0700     E  	mov a,ra
1066  001A  0080     E  	mov _wifi_uart_write_frame_2[1],a
1066  001B  0700     E  	mov a,rb
1066  001C  0080     E  	mov _wifi_uart_write_frame_2[2],a
1066  001D  0F03        	mov a,3
1066  001E  0080     E  	mov _wifi_uart_write_frame_2[0],a
1066  001F  0F34        	mov a,52
1066  0020              	fcall _wifi_uart_write_frame
1066  0027  0003        	ret
1066  0028              _open_module_time_serve endp
1066  0028              #line 1066 "E:\Project\17.HT66F4560_EVM_V1.0\CODE\HT66F4560_TuYa_FishTank_V1.0\mcu_sdk\mcu_api.c"
1066  0028              #pragma debug scope 1 1
1066  0028              public _request_weather_serve
1066  0028              #pragma debug scope 32 1
1076  0028              #line 1076 "E:\Project\17.HT66F4560_EVM_V1.0\CODE\HT66F4560_TuYa_FishTank_V1.0\mcu_sdk\mcu_api.c"
1076  0000              _request_weather_serve .section 'code'
1076  0000              _request_weather_serve proc
1078  0000              #line 1078 "E:\Project\17.HT66F4560_EVM_V1.0\CODE\HT66F4560_TuYa_FishTank_V1.0\mcu_sdk\mcu_api.c"
1078  0000  0F03        	mov a,3
1078  0001  0080     E  	mov _set_wifi_uart_byte_2[2],a
1078  0002  1F00     E  	clr _set_wifi_uart_byte_2[0]
1078  0003  1F00     E  	clr _set_wifi_uart_byte_2[1]
1078  0004              	fcall _set_wifi_uart_byte
1079  000B              #line 1079 "E:\Project\17.HT66F4560_EVM_V1.0\CODE\HT66F4560_TuYa_FishTank_V1.0\mcu_sdk\mcu_api.c"
1079  000B  0700     E  	mov a,ra
1079  000C  0080     E  	mov _wifi_uart_write_frame_2[1],a
1079  000D  0700     E  	mov a,rb
1079  000E  0080     E  	mov _wifi_uart_write_frame_2[2],a
1079  000F  0F03        	mov a,3
1079  0010  0080     E  	mov _wifi_uart_write_frame_2[0],a
1079  0011  0F34        	mov a,52
1079  0012              	fcall _wifi_uart_write_frame
1079  0019  0003        	ret
1079  001A              _request_weather_serve endp
1079  001A              #line 1079 "E:\Project\17.HT66F4560_EVM_V1.0\CODE\HT66F4560_TuYa_FishTank_V1.0\mcu_sdk\mcu_api.c"
1079  001A              #pragma debug scope 1 1
1079  001A              public _open_module_reset_state_serve
1079  001A              #pragma debug scope 33 1
1089  001A              #line 1089 "E:\Project\17.HT66F4560_EVM_V1.0\CODE\HT66F4560_TuYa_FishTank_V1.0\mcu_sdk\mcu_api.c"
"File: mcu_api.c     Assembler  Version HGASM0202      Page 34

1089  0000              _open_module_reset_state_serve .section 'code'
1089  0000              _open_module_reset_state_serve proc
1091  0000              #line 1091 "E:\Project\17.HT66F4560_EVM_V1.0\CODE\HT66F4560_TuYa_FishTank_V1.0\mcu_sdk\mcu_api.c"
1091  0000  0F04        	mov a,4
1091  0001  0080     E  	mov _set_wifi_uart_byte_2[2],a
1091  0002  1F00     E  	clr _set_wifi_uart_byte_2[0]
1091  0003  1F00     E  	clr _set_wifi_uart_byte_2[1]
1091  0004              	fcall _set_wifi_uart_byte
1092  000B              #line 1092 "E:\Project\17.HT66F4560_EVM_V1.0\CODE\HT66F4560_TuYa_FishTank_V1.0\mcu_sdk\mcu_api.c"
1092  000B  0700     E  	mov a,ra
1092  000C  0080     E  	mov _wifi_uart_write_frame_2[1],a
1092  000D  0700     E  	mov a,rb
1092  000E  0080     E  	mov _wifi_uart_write_frame_2[2],a
1092  000F  0F03        	mov a,3
1092  0010  0080     E  	mov _wifi_uart_write_frame_2[0],a
1092  0011  0F34        	mov a,52
1092  0012              	fcall _wifi_uart_write_frame
1092  0019  0003        	ret
1092  001A              _open_module_reset_state_serve endp
1092  001A              #line 1092 "E:\Project\17.HT66F4560_EVM_V1.0\CODE\HT66F4560_TuYa_FishTank_V1.0\mcu_sdk\mcu_api.c"
1092  001A              #pragma debug scope 1 1
1092  0000              @HCCINIT	.section 'data'
 653  0000              #line 653 "E:\Project\17.HT66F4560_EVM_V1.0\CODE\HT66F4560_TuYa_FishTank_V1.0\mcu_sdk\mcu_api.c"
 653  0000              @HCCINIT___rx_in_1197 .section 'data'
 653  0000              ___rx_in_1197 label byte
 653  0000              #pragma debug variable 10 21 ___rx_in_1197 "rx_in"
 653  0000              	db 0
 653  0000              @ROMDATA_BASE .section inpage 'code'
 653  0000              	db 0
 653  0001              @HCCINIT___rx_in_1197 .section 'data'
 653  0001              	db 0
 653  0001              @ROMDATA_BASE .section inpage 'code'
 653  0001              	db 0
 653  0002              @HCCINIT___rx_in_1197 .section 'data'
 653  0002              
 653  0002              ; output external variables
 653  0002              extern _set_wifimode_flag:byte
 653  0002              extern _reset_wifi_flag:byte
 653  0002              extern _wifi_work_state:byte
 653  0002              extern _wifi_data_process_buf:byte
 653  0002              extern _wifi_uart_rx_buf:byte
 653  0002              extern _rx_buf_in:byte
 653  0002              extern _rx_buf_out:byte
 653  0002              extern _stop_update_flag:byte
 653  0002              extern _set_wifi_uart_byte_2:byte
 653  0002              extern _set_wifi_uart_byte:near
 653  0002              extern _set_wifi_uart_buffer_2:byte
 653  0002              extern _set_wifi_uart_buffer:near
 653  0002              extern _wifi_uart_write_frame_2:byte
 653  0002              extern _wifi_uart_write_frame:near
 653  0002              extern _with_data_rxbuff:near
 653  0002              extern _take_byte_rxbuff:near
 653  0002              extern _get_check_sum_2:byte
 653  0002              extern _get_check_sum:near
 653  0002              extern _data_handle_2:byte
 653  0002              extern _data_handle:near
 653  0002              
 653  0002              ; 
 653  0002              ; Generated by holtek-gcc v3.19, Thu Mar 25 17:36:00 2021
 653  0002              ; Rebuild 718
"File: mcu_api.c     Assembler  Version HGASM0202      Page 35

 653  0002              ; end of file


        0 Errors, 0