"File: oled.c        Assembler  Version HGASM0202      Page 1


   1  0000              ; Generated by holtek-gcc v3.19, Thu Mar 25 17:35:55 2021
   2  0000              ; 
   3  0000              ; Configuration:
   4  0000              ;       with long instruction
   5  0000              ;       Multi-ROM, Multi-RAM
   6  0000              ;       bits_per_rom_unit:16
   7  0000              ;       with mp1
   8  0000              ;       with tbhp, address(0x9)
   9  0000              ;          Use tabrd-const
  10  0000              ;       
  11  0000              ; SFR address of long-instruction arch:
  12  0000              ;    mp0 = -1,1,0
  13  0000              ;    mp1 = 4,3,2
  14  0000              ;    mp2 = 14,13,12
  15  0000              ;    tbp = 9,7,8
  16  0000              ;    acc = 5
  17  0000              ;    pcl = 6
  18  0000              ;    status = 10
  19  0000              ;    bp = 11
  20  0000              ;    intc = 75
  21  0000              ;       
  22  0000              ;       
  23  0000              ; use 'tabrdc' instead of 'tabrd'
  24  0000              ;       
  25  0000              
  26  0000              #pragma translator "holtek-gcc 4.6.4" "3.19" "build 20130711"
  27  0000              ; Rebuild 718
  28  0000              
  29  0000              ir equ [2]
  30  0000              mp equ [3]
  31  0000              sbp equ [4]
  32  0000              acc equ [5]
  33  0000              bp equ [11]
  34  0000              tblp equ [7]
  35  0000              tbhp equ [9]
  36  0000              status equ [10]
  37  0000              c equ [10].0
  38  0000              ac equ [10].1
  39  0000              z equ [10].2
  40  0000              ov equ [10].3
  41  0000              cz equ [10].6
  42  0000              sc equ [10].7
  43  0000              intc equ [75]
  44  0000              
  45  0000              extern ra:byte
  46  0000              extern rb:byte
  47  0000              extern rc:byte
  48  0000              extern rd:byte
  49  0000              extern re:byte
  50  0000              extern rf:byte
  51  0000              extern rg:byte
  52  0000              extern rh:byte
  53  0000              extern _Crom2Prom:near
  54  0000              extern _Crom2PromNext:near
  55  0000              
  56  0000              RAMBANK 0 @BITDATASEC, @BITDATASEC1
  57  0000              @HCCINIT	.section 'data'
  58  0000              @HCCINIT0	.section 'data'
  59  0000              @BITDATASEC	 .section 'data'
"File: oled.ASM      Assembler  Version HGASM0202      Page 2

  60  0000              @BITDATASEC1	 .section 'data'
  61  0000              
  62  0000              #pragma debug scope 1 1
  63  0000              	extern __DELAY3:near
  64  0000              	extern __DELAYX3:near
  65  0000              	extern __DELAYX6:near
  66  0000              	extern __DELAYY5:near
  67  0000              	extern __DELAYY3:near
  68  0000              	extern _builtin_holtek_delay_2:byte
  69  0000              public _delay_1us
  70  0000              #pragma debug scope 2 1

  19  0000              #line 19 "E:\Project\17.HT66F4560_EVM_V1.0\CODE\HT66F4560_TuYa_FishTank_V1.0\souce\oled.c"
  19  0000              _delay_1us .section 'code'
  19  0000              _delay_1us proc
  19  0000  00              local _delay_1us_2 db 1 dup(?)	; 0,1
  19  0001              #pragma debug variable 8 2 _delay_1us_2+0 "time"
  19  0000  0003        	ret
  19  0001              _delay_1us endp
  19  0001              #line 19 "E:\Project\17.HT66F4560_EVM_V1.0\CODE\HT66F4560_TuYa_FishTank_V1.0\souce\oled.c"
  19  0001              #pragma debug scope 1 1
  19  0001              ___pbc equ [38]
  19  0001              ___pac equ [21]
  19  0001              ___pa equ [20]
  19  0001              ___pb equ [37]
  19  0001              public _oled_iic_start
  19  0001              #pragma debug scope 3 1
  24  0001              #line 24 "E:\Project\17.HT66F4560_EVM_V1.0\CODE\HT66F4560_TuYa_FishTank_V1.0\souce\oled.c"
  24  0000              _oled_iic_start .section 'code'
  24  0000              _oled_iic_start proc
  25  0000              #line 25 "E:\Project\17.HT66F4560_EVM_V1.0\CODE\HT66F4560_TuYa_FishTank_V1.0\souce\oled.c"
  25  0000  36A6        	clr [38].5
  26  0001              #line 26 "E:\Project\17.HT66F4560_EVM_V1.0\CODE\HT66F4560_TuYa_FishTank_V1.0\souce\oled.c"
  26  0001  3615        	clr [21].4
  27  0002              #line 27 "E:\Project\17.HT66F4560_EVM_V1.0\CODE\HT66F4560_TuYa_FishTank_V1.0\souce\oled.c"
  27  0002  3214        	set [20].4
  28  0003              #line 28 "E:\Project\17.HT66F4560_EVM_V1.0\CODE\HT66F4560_TuYa_FishTank_V1.0\souce\oled.c"
  28  0003  32A5        	set [37].5
  30  0004              #line 30 "E:\Project\17.HT66F4560_EVM_V1.0\CODE\HT66F4560_TuYa_FishTank_V1.0\souce\oled.c"
  30  0004  36A5        	clr [37].5
  32  0005              #line 32 "E:\Project\17.HT66F4560_EVM_V1.0\CODE\HT66F4560_TuYa_FishTank_V1.0\souce\oled.c"
  32  0005  3614        	clr [20].4
  32  0006  0003        	ret
  32  0007              _oled_iic_start endp
  32  0007              #line 32 "E:\Project\17.HT66F4560_EVM_V1.0\CODE\HT66F4560_TuYa_FishTank_V1.0\souce\oled.c"
  32  0007              #pragma debug scope 1 1
  32  0007              public _oled_iic_stop
  32  0007              #pragma debug scope 4 1
  38  0007              #line 38 "E:\Project\17.HT66F4560_EVM_V1.0\CODE\HT66F4560_TuYa_FishTank_V1.0\souce\oled.c"
  38  0000              _oled_iic_stop .section 'code'
  38  0000              _oled_iic_stop proc
  39  0000              #line 39 "E:\Project\17.HT66F4560_EVM_V1.0\CODE\HT66F4560_TuYa_FishTank_V1.0\souce\oled.c"
  39  0000  36A6        	clr [38].5
  40  0001              #line 40 "E:\Project\17.HT66F4560_EVM_V1.0\CODE\HT66F4560_TuYa_FishTank_V1.0\souce\oled.c"
  40  0001  36A5        	clr [37].5
  42  0002              #line 42 "E:\Project\17.HT66F4560_EVM_V1.0\CODE\HT66F4560_TuYa_FishTank_V1.0\souce\oled.c"
  42  0002  3214        	set [20].4
  44  0003              #line 44 "E:\Project\17.HT66F4560_EVM_V1.0\CODE\HT66F4560_TuYa_FishTank_V1.0\souce\oled.c"
  44  0003  32A5        	set [37].5
  44  0004  0003        	ret
"File: oled.c        Assembler  Version HGASM0202      Page 3

  44  0005              _oled_iic_stop endp
  44  0005              #line 44 "E:\Project\17.HT66F4560_EVM_V1.0\CODE\HT66F4560_TuYa_FishTank_V1.0\souce\oled.c"
  44  0005              #pragma debug scope 1 1
  44  0005              ___pbpu equ [39]
  44  0005              public _oled_iic_wait_ack
  44  0005              #pragma debug scope 5 1
  50  0005              #line 50 "E:\Project\17.HT66F4560_EVM_V1.0\CODE\HT66F4560_TuYa_FishTank_V1.0\souce\oled.c"
  50  0000              _oled_iic_wait_ack .section 'code'
  50  0000              _oled_iic_wait_ack proc
  52  0000              #line 52 "E:\Project\17.HT66F4560_EVM_V1.0\CODE\HT66F4560_TuYa_FishTank_V1.0\souce\oled.c"
  52  0000  36A6        	clr [38].5
  53  0001              #line 53 "E:\Project\17.HT66F4560_EVM_V1.0\CODE\HT66F4560_TuYa_FishTank_V1.0\souce\oled.c"
  53  0001  3614        	clr [20].4
  55  0002              #line 55 "E:\Project\17.HT66F4560_EVM_V1.0\CODE\HT66F4560_TuYa_FishTank_V1.0\souce\oled.c"
  55  0002  32A5        	set [37].5
  57  0003              #line 57 "E:\Project\17.HT66F4560_EVM_V1.0\CODE\HT66F4560_TuYa_FishTank_V1.0\souce\oled.c"
  57  0003  3214        	set [20].4
  60  0004              #line 60 "E:\Project\17.HT66F4560_EVM_V1.0\CODE\HT66F4560_TuYa_FishTank_V1.0\souce\oled.c"
  60  0004  32A6        	set [38].5
  61  0005              #line 61 "E:\Project\17.HT66F4560_EVM_V1.0\CODE\HT66F4560_TuYa_FishTank_V1.0\souce\oled.c"
  61  0005  32A7        	set [39].5
  64  0006              #line 64 "E:\Project\17.HT66F4560_EVM_V1.0\CODE\HT66F4560_TuYa_FishTank_V1.0\souce\oled.c"
  64  0006  0725        	mov a,[37]
  64  0007  0080     E  	mov rb,a
  69  0008              #line 69 "E:\Project\17.HT66F4560_EVM_V1.0\CODE\HT66F4560_TuYa_FishTank_V1.0\souce\oled.c"
  69  0008  36A6        	clr [38].5
  70  0009              #line 70 "E:\Project\17.HT66F4560_EVM_V1.0\CODE\HT66F4560_TuYa_FishTank_V1.0\souce\oled.c"
  70  0009  3614        	clr [20].4
  64  000A              #line 64 "E:\Project\17.HT66F4560_EVM_V1.0\CODE\HT66F4560_TuYa_FishTank_V1.0\souce\oled.c"
  64  000A  1F00     E  	clr ra
  64  000B  3C00     E  	sz rb.5
  64  000C  1480     E  	inc ra
  73  000D              #line 73 "E:\Project\17.HT66F4560_EVM_V1.0\CODE\HT66F4560_TuYa_FishTank_V1.0\souce\oled.c"
  73  000D  0700     E  	mov a,ra
  73  000E  0003        	ret
  73  000F              _oled_iic_wait_ack endp
  73  000F              #line 73 "E:\Project\17.HT66F4560_EVM_V1.0\CODE\HT66F4560_TuYa_FishTank_V1.0\souce\oled.c"
  73  000F              #pragma debug scope 1 1
  73  000F              public _oled_write_byte
  73  000F              #pragma debug scope 6 1
  77  000F              #line 77 "E:\Project\17.HT66F4560_EVM_V1.0\CODE\HT66F4560_TuYa_FishTank_V1.0\souce\oled.c"
  77  0000              _oled_write_byte .section 'code'
  77  0000              _oled_write_byte proc
  77  0000  0003[           local _oled_write_byte_2 db 3 dup(?)	; 0,3
            00
            ]
  77  0000  0080     R  	mov _oled_write_byte_2[0],a
  77  0001              #pragma debug variable 8 6 _oled_write_byte_2+0 "byte"
  79  0001              #line 79 "E:\Project\17.HT66F4560_EVM_V1.0\CODE\HT66F4560_TuYa_FishTank_V1.0\souce\oled.c"
  79  0001  36A6        	clr [38].5
  79  0002  1F00     E  	clr ra
  79  0003              _L9:
  83  0003              #line 83 "E:\Project\17.HT66F4560_EVM_V1.0\CODE\HT66F4560_TuYa_FishTank_V1.0\souce\oled.c"
  83  0003  3614        	clr [20].4
  86  0004              #line 86 "E:\Project\17.HT66F4560_EVM_V1.0\CODE\HT66F4560_TuYa_FishTank_V1.0\souce\oled.c"
  86  0004  3800     R  	snz _oled_write_byte_2[0].7
  86  0005  2800     R  	jmp _L6
  88  0006              #line 88 "E:\Project\17.HT66F4560_EVM_V1.0\CODE\HT66F4560_TuYa_FishTank_V1.0\souce\oled.c"
  88  0006  32A5        	set [37].5
  88  0007  2800     R  	jmp _L7
"File: oled.c        Assembler  Version HGASM0202      Page 4

  88  0008              _L6:
  92  0008              #line 92 "E:\Project\17.HT66F4560_EVM_V1.0\CODE\HT66F4560_TuYa_FishTank_V1.0\souce\oled.c"
  92  0008  36A5        	clr [37].5
  92  0009              _L7:
  94  0009              #line 94 "E:\Project\17.HT66F4560_EVM_V1.0\CODE\HT66F4560_TuYa_FishTank_V1.0\souce\oled.c"
  94  0009  0700     R  	mov a,_oled_write_byte_2[0]
  94  000A  0380     R  	addm a,_oled_write_byte_2[0]
  96  000B              #line 96 "E:\Project\17.HT66F4560_EVM_V1.0\CODE\HT66F4560_TuYa_FishTank_V1.0\souce\oled.c"
  96  000B  3214        	set [20].4
  96  000C  1480     E  	inc ra
  80  000D              #line 80 "E:\Project\17.HT66F4560_EVM_V1.0\CODE\HT66F4560_TuYa_FishTank_V1.0\souce\oled.c"
  80  000D  0700     E  	mov a,ra
  80  000E  0A08        	sub a,8
  80  000F  390A        	snz z
  80  0010  2800     R  	jmp _L9
  99  0011              #line 99 "E:\Project\17.HT66F4560_EVM_V1.0\CODE\HT66F4560_TuYa_FishTank_V1.0\souce\oled.c"
  99  0011  3614        	clr [20].4
 103  0012              #line 103 "E:\Project\17.HT66F4560_EVM_V1.0\CODE\HT66F4560_TuYa_FishTank_V1.0\souce\oled.c"
 103  0012  0FC5        	mov a,-59
 103  0013  0080     R  	mov _oled_write_byte_2[1],a
 103  0014  0F09        	mov a,9
 103  0015  0080     R  	mov _oled_write_byte_2[2],a
 103  0016              _L10:
 103  0016              	fcall _oled_iic_wait_ack
 103  001D  0080     E  	mov ra,a
 103  001E  1E00     E  	snz ra
 103  001F  2800     R  	jmp _L5
 103  0020  0FFF        	mov a,255
 103  0021  0380     R  	addm a,_oled_write_byte_2[1]
 103  0022  0FFF        	mov a,255
 103  0023  1380     R  	adcm a,_oled_write_byte_2[2]
 103  0024  0700     R  	mov a,_oled_write_byte_2[1]
 103  0025  0500     R  	or a,_oled_write_byte_2[2]
 103  0026  3D0A        	sz z
 103  0027  2800     R  	jmp _L5
 106  0028              #line 106 "E:\Project\17.HT66F4560_EVM_V1.0\CODE\HT66F4560_TuYa_FishTank_V1.0\souce\oled.c"
 106  0028              ;# 106 "E:\Project\17.HT66F4560_EVM_V1.0\CODE\HT66F4560_TuYa_FishTank_V1.0\souce\oled.c" 1
 106  0028              	IF 20>263690
 106  0028              ;# 106 "E:\Project\17.HT66F4560_EVM_V1.0\CODE\HT66F4560_TuYa_FishTank_V1.0\souce\oled.c" 1
 106  0028              	ERRMESSAGE 'the value 20of the argument exceeds the maxinum 263690'
 106  0028              	ENDIF
 106  0028              ;# 106 "E:\Project\17.HT66F4560_EVM_V1.0\CODE\HT66F4560_TuYa_FishTank_V1.0\souce\oled.c" 1
 106  0028              	IF 20<0
 106  0028              ;# 106 "E:\Project\17.HT66F4560_EVM_V1.0\CODE\HT66F4560_TuYa_FishTank_V1.0\souce\oled.c" 1
 106  0028              	ERRMESSAGE 'the value 20 of the argument exceeds the mininum 0'
 106  0028              	ENDIF
 106  0028              ;# 106 "E:\Project\17.HT66F4560_EVM_V1.0\CODE\HT66F4560_TuYa_FishTank_V1.0\souce\oled.c" 1
 106  0028              	IF 20==0
 106  0028              ;# 106 "E:\Project\17.HT66F4560_EVM_V1.0\CODE\HT66F4560_TuYa_FishTank_V1.0\souce\oled.c" 1
 106  0028              	JMP $
 106  0028              	ENDIF
 106  0028              ;# 106 "E:\Project\17.HT66F4560_EVM_V1.0\CODE\HT66F4560_TuYa_FishTank_V1.0\souce\oled.c" 1
 106  0028              	IF (20>=1) AND (20<( 4 + __PBP__ * 2))
 106  0028              ;# 106 "E:\Project\17.HT66F4560_EVM_V1.0\CODE\HT66F4560_TuYa_FishTank_V1.0\souce\oled.c" 1
 106  0028              	NOP
 106  0028              	ENDIF
 106  0028              ;# 106 "E:\Project\17.HT66F4560_EVM_V1.0\CODE\HT66F4560_TuYa_FishTank_V1.0\souce\oled.c" 1
 106  0028              	IF (20>=2) AND (20<( 4 + __PBP__ * 2))
 106  0028              ;# 106 "E:\Project\17.HT66F4560_EVM_V1.0\CODE\HT66F4560_TuYa_FishTank_V1.0\souce\oled.c" 1
 106  0028              	NOP
"File: oled.c        Assembler  Version HGASM0202      Page 5

 106  0028              	ENDIF
 106  0028              ;# 106 "E:\Project\17.HT66F4560_EVM_V1.0\CODE\HT66F4560_TuYa_FishTank_V1.0\souce\oled.c" 1
 106  0028              	IF (20>=3) AND (20<( 4 + __PBP__ * 2))
 106  0028              ;# 106 "E:\Project\17.HT66F4560_EVM_V1.0\CODE\HT66F4560_TuYa_FishTank_V1.0\souce\oled.c" 1
 106  0028              	NOP
 106  0028              	ENDIF
 106  0028              ;# 106 "E:\Project\17.HT66F4560_EVM_V1.0\CODE\HT66F4560_TuYa_FishTank_V1.0\souce\oled.c" 1
 106  0028              	IF (20>=4) AND (20<( 4 + __PBP__ * 2)) AND ( __PBP__ > 0 )
 106  0028              ;# 106 "E:\Project\17.HT66F4560_EVM_V1.0\CODE\HT66F4560_TuYa_FishTank_V1.0\souce\oled.c" 1
 106  0028              	NOP
 106  0028              	ENDIF
 106  0028              ;# 106 "E:\Project\17.HT66F4560_EVM_V1.0\CODE\HT66F4560_TuYa_FishTank_V1.0\souce\oled.c" 1
 106  0028              	IF (20>=5) AND (20<( 4 + __PBP__ * 2)) AND ( __PBP__ > 0 )
 106  0028              ;# 106 "E:\Project\17.HT66F4560_EVM_V1.0\CODE\HT66F4560_TuYa_FishTank_V1.0\souce\oled.c" 1
 106  0028              	NOP
 106  0028              	ENDIF
 106  0028              ;# 106 "E:\Project\17.HT66F4560_EVM_V1.0\CODE\HT66F4560_TuYa_FishTank_V1.0\souce\oled.c" 1
 106  0028              	IF (20>=6) AND (20<( 4 + __PBP__ * 2))  AND ( __PBP__ > 1 )
 106  0028              ;# 106 "E:\Project\17.HT66F4560_EVM_V1.0\CODE\HT66F4560_TuYa_FishTank_V1.0\souce\oled.c" 1
 106  0028              	NOP
 106  0028              	ENDIF
 106  0028              ;# 106 "E:\Project\17.HT66F4560_EVM_V1.0\CODE\HT66F4560_TuYa_FishTank_V1.0\souce\oled.c" 1
 106  0028              	IF (20>=7) AND (20<( 4 + __PBP__ * 2))  AND ( __PBP__ > 1 )
 106  0028              ;# 106 "E:\Project\17.HT66F4560_EVM_V1.0\CODE\HT66F4560_TuYa_FishTank_V1.0\souce\oled.c" 1
 106  0028              	NOP
 106  0028              	ENDIF
 106  0028              ;# 106 "E:\Project\17.HT66F4560_EVM_V1.0\CODE\HT66F4560_TuYa_FishTank_V1.0\souce\oled.c" 1
 106  0028              	IF (20>=8) AND (20<( 4 + __PBP__ * 2))  AND ( __PBP__ > 2 )
 106  0028              ;# 106 "E:\Project\17.HT66F4560_EVM_V1.0\CODE\HT66F4560_TuYa_FishTank_V1.0\souce\oled.c" 1
 106  0028              	NOP
 106  0028              	ENDIF
 106  0028              ;# 106 "E:\Project\17.HT66F4560_EVM_V1.0\CODE\HT66F4560_TuYa_FishTank_V1.0\souce\oled.c" 1
 106  0028              	IF (20==9)  AND ( __PBP__ > 2 )
 106  0028              ;# 106 "E:\Project\17.HT66F4560_EVM_V1.0\CODE\HT66F4560_TuYa_FishTank_V1.0\souce\oled.c" 1
 106  0028              	NOP
 106  0028              	ENDIF
 106  0028              ;# 106 "E:\Project\17.HT66F4560_EVM_V1.0\CODE\HT66F4560_TuYa_FishTank_V1.0\souce\oled.c" 1
 106  0028              	IF (20< ( 8 + __PBP__ * 2)) AND (20>( 3 + __PBP__ * 2))
 106  0028              ;# 106 "E:\Project\17.HT66F4560_EVM_V1.0\CODE\HT66F4560_TuYa_FishTank_V1.0\souce\oled.c" 1
 106  0028              	fcall __DELAY3 + ( 7 + __PBP__ * 2) -20
 106  0028              	ENDIF
 106  0028              ;# 106 "E:\Project\17.HT66F4560_EVM_V1.0\CODE\HT66F4560_TuYa_FishTank_V1.0\souce\oled.c" 1
 106  0028              	IF (20< ( 0404h + __PBP__ * 2)) AND (20>( 7 + __PBP__ * 2))
 106  0028              ;# 106 "E:\Project\17.HT66F4560_EVM_V1.0\CODE\HT66F4560_TuYa_FishTank_V1.0\souce\oled.c" 1
 106  0028  0F03        	MOV A,(20-( 4 + __PBP__ * 2))/4
 106  0029              ;# 106 "E:\Project\17.HT66F4560_EVM_V1.0\CODE\HT66F4560_TuYa_FishTank_V1.0\souce\oled.c" 1
 106  0029              	fcall __DELAYX3 + 3 -((20-( 4 + __PBP__ * 2)) MOD 4) 
 106  0030              	ENDIF
 106  0030              ;# 106 "E:\Project\17.HT66F4560_EVM_V1.0\CODE\HT66F4560_TuYa_FishTank_V1.0\souce\oled.c" 1
 106  0030              	IF (20< ( 040bh + __PBP__ * 2)) AND (20> ( 0403h + __PBP__ * 2))
 106  0030              ;# 106 "E:\Project\17.HT66F4560_EVM_V1.0\CODE\HT66F4560_TuYa_FishTank_V1.0\souce\oled.c" 1
 106  0030              	MOV A,0 
 106  0030              ;# 106 "E:\Project\17.HT66F4560_EVM_V1.0\CODE\HT66F4560_TuYa_FishTank_V1.0\souce\oled.c" 1
 106  0030              	fcall __DELAYX6 + ( 040ah + __PBP__ * 2) -20
 106  0030              	ENDIF
 106  0030              ;# 106 "E:\Project\17.HT66F4560_EVM_V1.0\CODE\HT66F4560_TuYa_FishTank_V1.0\souce\oled.c" 1
 106  0030              	IF (20 >= ( 040bh + __PBP__ * 2)) AND ((((20-( 9 + __PBP__ * 2))%0402h)/4+1)>256)
 106  0030              ;# 106 "E:\Project\17.HT66F4560_EVM_V1.0\CODE\HT66F4560_TuYa_FishTank_V1.0\souce\oled.c" 1
 106  0030              	MOV A,(20-( 9 + __PBP__ * 2))/0402h
 106  0030              ;# 106 "E:\Project\17.HT66F4560_EVM_V1.0\CODE\HT66F4560_TuYa_FishTank_V1.0\souce\oled.c" 1
"File: oled.c        Assembler  Version HGASM0202      Page 6

 106  0030              	MOV _builtin_holtek_delay_2,A
 106  0030              ;# 106 "E:\Project\17.HT66F4560_EVM_V1.0\CODE\HT66F4560_TuYa_FishTank_V1.0\souce\oled.c" 1
 106  0030              	MOV A,0
 106  0030              ;# 106 "E:\Project\17.HT66F4560_EVM_V1.0\CODE\HT66F4560_TuYa_FishTank_V1.0\souce\oled.c" 1
 106  0030              	fcall __DELAYY5 +5- (((20-( 9 + __PBP__ * 2))%0402h)%6) 
 106  0030              	ENDIF
 106  0030              ;# 106 "E:\Project\17.HT66F4560_EVM_V1.0\CODE\HT66F4560_TuYa_FishTank_V1.0\souce\oled.c" 1
 106  0030              	IF (20 >= ( 040bh + __PBP__ * 2)) AND ((((20-( 9 + __PBP__ * 2))%0402h)/4+1)<=256)
 106  0030              ;# 106 "E:\Project\17.HT66F4560_EVM_V1.0\CODE\HT66F4560_TuYa_FishTank_V1.0\souce\oled.c" 1
 106  0030              	MOV A,(20-( 9 + __PBP__ * 2))/0402h
 106  0030              ;# 106 "E:\Project\17.HT66F4560_EVM_V1.0\CODE\HT66F4560_TuYa_FishTank_V1.0\souce\oled.c" 1
 106  0030              	MOV _builtin_holtek_delay_2,A
 106  0030              ;# 106 "E:\Project\17.HT66F4560_EVM_V1.0\CODE\HT66F4560_TuYa_FishTank_V1.0\souce\oled.c" 1
 106  0030              	MOV A,((20-( 9 + __PBP__ * 2))%0402h)/4+1
 106  0030              ;# 106 "E:\Project\17.HT66F4560_EVM_V1.0\CODE\HT66F4560_TuYa_FishTank_V1.0\souce\oled.c" 1
 106  0030              	fcall __DELAYY3 +3-(((20-( 9 + __PBP__ * 2))%0402h)%4) 
 106  0030              	ENDIF
 106  0030  2800     R  	jmp _L10
 106  0031              _L5:
 106  0031  0003        	ret
 106  0032              _oled_write_byte endp
 106  0032              #line 106 "E:\Project\17.HT66F4560_EVM_V1.0\CODE\HT66F4560_TuYa_FishTank_V1.0\souce\oled.c"
 106  0032              #pragma debug scope 1 1
 106  0032              public _oled_write_cmd
 106  0032              #pragma debug scope 7 1
 114  0032              #line 114 "E:\Project\17.HT66F4560_EVM_V1.0\CODE\HT66F4560_TuYa_FishTank_V1.0\souce\oled.c"
 114  0000              _oled_write_cmd .section 'code'
 114  0000              _oled_write_cmd proc
 114  0000  00              local _oled_write_cmd_2 db 1 dup(?)	; 0,1
 114  0000  0080     R  	mov _oled_write_cmd_2[0],a
 114  0001              #pragma debug variable 8 7 _oled_write_cmd_2+0 "cmd"
 115  0001              #line 115 "E:\Project\17.HT66F4560_EVM_V1.0\CODE\HT66F4560_TuYa_FishTank_V1.0\souce\oled.c"
 115  0001              	fcall _oled_iic_start
 116  0008              #line 116 "E:\Project\17.HT66F4560_EVM_V1.0\CODE\HT66F4560_TuYa_FishTank_V1.0\souce\oled.c"
 116  0008  0F78        	mov a,120
 116  0009              	fcall _oled_write_byte
 117  0010              #line 117 "E:\Project\17.HT66F4560_EVM_V1.0\CODE\HT66F4560_TuYa_FishTank_V1.0\souce\oled.c"
 117  0010  0F00        	mov a,0
 117  0011              	fcall _oled_write_byte
 118  0018              #line 118 "E:\Project\17.HT66F4560_EVM_V1.0\CODE\HT66F4560_TuYa_FishTank_V1.0\souce\oled.c"
 118  0018  0700     R  	mov a,_oled_write_cmd_2[0]
 118  0019              	fcall _oled_write_byte
 119  0020              #line 119 "E:\Project\17.HT66F4560_EVM_V1.0\CODE\HT66F4560_TuYa_FishTank_V1.0\souce\oled.c"
 119  0020              	fcall _oled_iic_stop
 119  0027  0003        	ret
 119  0028              _oled_write_cmd endp
 119  0028              #line 119 "E:\Project\17.HT66F4560_EVM_V1.0\CODE\HT66F4560_TuYa_FishTank_V1.0\souce\oled.c"
 119  0028              #pragma debug scope 1 1
 119  0028              public _oled_write_dat
 119  0028              #pragma debug scope 8 1
 124  0028              #line 124 "E:\Project\17.HT66F4560_EVM_V1.0\CODE\HT66F4560_TuYa_FishTank_V1.0\souce\oled.c"
 124  0000              _oled_write_dat .section 'code'
 124  0000              _oled_write_dat proc
 124  0000  00              local _oled_write_dat_2 db 1 dup(?)	; 0,1
 124  0000  0080     R  	mov _oled_write_dat_2[0],a
 124  0001              #pragma debug variable 8 8 _oled_write_dat_2+0 "dat"
 125  0001              #line 125 "E:\Project\17.HT66F4560_EVM_V1.0\CODE\HT66F4560_TuYa_FishTank_V1.0\souce\oled.c"
 125  0001              	fcall _oled_iic_start
 126  0008              #line 126 "E:\Project\17.HT66F4560_EVM_V1.0\CODE\HT66F4560_TuYa_FishTank_V1.0\souce\oled.c"
 126  0008  0F78        	mov a,120
"File: oled.c        Assembler  Version HGASM0202      Page 7

 126  0009              	fcall _oled_write_byte
 127  0010              #line 127 "E:\Project\17.HT66F4560_EVM_V1.0\CODE\HT66F4560_TuYa_FishTank_V1.0\souce\oled.c"
 127  0010  0F40        	mov a,64
 127  0011              	fcall _oled_write_byte
 128  0018              #line 128 "E:\Project\17.HT66F4560_EVM_V1.0\CODE\HT66F4560_TuYa_FishTank_V1.0\souce\oled.c"
 128  0018  0700     R  	mov a,_oled_write_dat_2[0]
 128  0019              	fcall _oled_write_byte
 129  0020              #line 129 "E:\Project\17.HT66F4560_EVM_V1.0\CODE\HT66F4560_TuYa_FishTank_V1.0\souce\oled.c"
 129  0020              	fcall _oled_iic_stop
 129  0027  0003        	ret
 129  0028              _oled_write_dat endp
 129  0028              #line 129 "E:\Project\17.HT66F4560_EVM_V1.0\CODE\HT66F4560_TuYa_FishTank_V1.0\souce\oled.c"
 129  0028              #pragma debug scope 1 1
 129  0028              public _oled_set_pos
 129  0028              #pragma debug scope 9 1
 134  0028              #line 134 "E:\Project\17.HT66F4560_EVM_V1.0\CODE\HT66F4560_TuYa_FishTank_V1.0\souce\oled.c"
 134  0000              _oled_set_pos .section 'code'
 134  0000              _oled_set_pos proc
 134  0000              public _oled_set_pos_2
 134  0000  0002[           local _oled_set_pos_2 db 2 dup(?)	; 1,1
            00
            ]
 134  0000  0080     R  	mov _oled_set_pos_2[1],a
 134  0001              #pragma debug variable 8 9 _oled_set_pos_2+1 "x"
 134  0001              #pragma debug variable 8 9 _oled_set_pos_2+0 "y"
 135  0001              #line 135 "E:\Project\17.HT66F4560_EVM_V1.0\CODE\HT66F4560_TuYa_FishTank_V1.0\souce\oled.c"
 135  0001  0700     R  	mov a,_oled_set_pos_2[0]
 135  0002  0BB0        	add a,176
 135  0003  0080     E  	mov ra,a
 135  0004  0700     E  	mov a,ra
 135  0005              	fcall _oled_write_cmd
 136  000C              #line 136 "E:\Project\17.HT66F4560_EVM_V1.0\CODE\HT66F4560_TuYa_FishTank_V1.0\souce\oled.c"
 136  000C  0700     R  	mov a,_oled_set_pos_2[1]
 136  000D  0E0F        	and a,15
 136  000E  0080     E  	mov ra,a
 136  000F  0700     E  	mov a,ra
 136  0010              	fcall _oled_write_cmd
 137  0017              #line 137 "E:\Project\17.HT66F4560_EVM_V1.0\CODE\HT66F4560_TuYa_FishTank_V1.0\souce\oled.c"
 137  0017  1100     R  	swapa _oled_set_pos_2[1]
 137  0018  0E0F        	and a,0fh
 137  0019  0080     E  	mov ra,a
 137  001A  3000     E  	set ra.4
 137  001B  0700     E  	mov a,ra
 137  001C              	fcall _oled_write_cmd
 137  0023  0003        	ret
 137  0024              _oled_set_pos endp
 137  0024              #line 137 "E:\Project\17.HT66F4560_EVM_V1.0\CODE\HT66F4560_TuYa_FishTank_V1.0\souce\oled.c"
 137  0024              #pragma debug scope 1 1
 137  0024              public _oled_pow
 137  0024              #pragma debug scope 10 1
 142  0024              #line 142 "E:\Project\17.HT66F4560_EVM_V1.0\CODE\HT66F4560_TuYa_FishTank_V1.0\souce\oled.c"
 142  0000              _oled_pow .section 'code'
 142  0000              _oled_pow proc
 142  0000              public _oled_pow_2
 142  0000  0002[           local _oled_pow_2 db 2 dup(?)	; 1,1
            00
            ]
 142  0000  0080     R  	mov _oled_pow_2[1],a
 142  0001              #pragma debug variable 8 10 _oled_pow_2+1 "m"
 142  0001              #pragma debug variable 8 10 _oled_pow_2+0 "n"
"File: oled.c        Assembler  Version HGASM0202      Page 8

 143  0001              #line 143 "E:\Project\17.HT66F4560_EVM_V1.0\CODE\HT66F4560_TuYa_FishTank_V1.0\souce\oled.c"
 143  0001  0F01        	mov a,1
 143  0002  0080     E  	mov ra,a
 143  0003  1F00     E  	clr rb
 144  0004              #line 144 "E:\Project\17.HT66F4560_EVM_V1.0\CODE\HT66F4560_TuYa_FishTank_V1.0\souce\oled.c"
 144  0004  2800     R  	jmp _L21
 144  0005              _L22:
 144  0005              #line 144 "E:\Project\17.HT66F4560_EVM_V1.0\CODE\HT66F4560_TuYa_FishTank_V1.0\souce\oled.c"
 144  0005  0700     R  	mov a,_oled_pow_2[1]
 144  0006  0080     E  	mov _builtin_holtek_mulhi3_2[0],a
 144  0007  1F00     E  	clr _builtin_holtek_mulhi3_2[1]
 144  0008  0700     E  	mov a,ra
 144  0009  0080     E  	mov _builtin_holtek_mulhi3_2[2],a
 144  000A  0700     E  	mov a,rb
 144  000B  0080     E  	mov _builtin_holtek_mulhi3_2[3],a
 144  000C              	fcall _builtin_holtek_mulhi3
 144  0013  0700     E  	mov a,_builtin_holtek_mulhi3_2[4]  
 144  0014  0080     E  	mov ra,a  
 144  0015  0700     E  	mov a,_builtin_holtek_mulhi3_2[5]  
 144  0016  0080     E  	mov rb,a
 144  0017              _L21:
 144  0017  1580     R  	dec _oled_pow_2[0]
 144  0018  1600     R  	siza _oled_pow_2[0]
 144  0019  2800     R  	jmp _L22
 144  001A  0003        	ret
 144  001B              _oled_pow endp
 144  001B              #line 144 "E:\Project\17.HT66F4560_EVM_V1.0\CODE\HT66F4560_TuYa_FishTank_V1.0\souce\oled.c"
 144  001B              #pragma debug scope 1 1
 144  001B              public _oled_showchar
 144  001B              #pragma debug scope 11 1
 156  001B              #line 156 "E:\Project\17.HT66F4560_EVM_V1.0\CODE\HT66F4560_TuYa_FishTank_V1.0\souce\oled.c"
 156  0000              _oled_showchar .section 'code'
 156  0000              _oled_showchar proc
 156  0000              public _oled_showchar_2
 156  0000  0006[           local _oled_showchar_2 db 6 dup(?)	; 3,3
            00
            ]
 156  0000  0080     E  	mov ra,a
 156  0001  0080     R  	mov _oled_showchar_2[3],a
 156  0002              #pragma debug variable 8 11 _oled_showchar_2+3 "x"
 156  0002              #pragma debug variable 8 11 _oled_showchar_2+0 "y"
 156  0002              #pragma debug variable 8 11 _oled_showchar_2+1 "chr"
 156  0002              #pragma debug variable 8 11 _oled_showchar_2+2 "Char_Size"
 156  0002              #pragma debug variable 8 11 _oled_showchar_2+5 "i"
 159  0002              #line 159 "E:\Project\17.HT66F4560_EVM_V1.0\CODE\HT66F4560_TuYa_FishTank_V1.0\souce\oled.c"
 159  0002  0F77        	mov a,119
 159  0003  0200     E  	sub a,ra
 159  0004  3C0A        	sz c
 159  0005  2800     R  	jmp _L24
 162  0006              #line 162 "E:\Project\17.HT66F4560_EVM_V1.0\CODE\HT66F4560_TuYa_FishTank_V1.0\souce\oled.c"
 162  0006  0F02        	mov a,2
 162  0007  0380     R  	addm a,_oled_showchar_2[0]
 161  0008              #line 161 "E:\Project\17.HT66F4560_EVM_V1.0\CODE\HT66F4560_TuYa_FishTank_V1.0\souce\oled.c"
 161  0008  1F00     R  	clr _oled_showchar_2[3]
 161  0009              _L24:
 164  0009              #line 164 "E:\Project\17.HT66F4560_EVM_V1.0\CODE\HT66F4560_TuYa_FishTank_V1.0\souce\oled.c"
 164  0009  0700     R  	mov a,_oled_showchar_2[2]
 164  000A  0A10        	sub a,16
 164  000B  3D0A        	sz z
 164  000C  2800     R  	jmp _L23
"File: oled.c        Assembler  Version HGASM0202      Page 9

 175  000D              #line 175 "E:\Project\17.HT66F4560_EVM_V1.0\CODE\HT66F4560_TuYa_FishTank_V1.0\souce\oled.c"
 175  000D  0700     R  	mov a,_oled_showchar_2[0]
 175  000E  0080     R  	mov _oled_set_pos_2[0],a
 175  000F  0700     R  	mov a,_oled_showchar_2[3]
 175  0010              	fcall _oled_set_pos
 175  0017  0F06        	mov a,6
 175  0018  0080     R  	mov _oled_showchar_2[4],a
 176  0019              #line 176 "E:\Project\17.HT66F4560_EVM_V1.0\CODE\HT66F4560_TuYa_FishTank_V1.0\souce\oled.c"
 176  0019  1F00     R  	clr _oled_showchar_2[5]
 176  001A              _L27:
 158  001A              #line 158 "E:\Project\17.HT66F4560_EVM_V1.0\CODE\HT66F4560_TuYa_FishTank_V1.0\souce\oled.c"
 158  001A  0700     R  	mov a,_oled_showchar_2[1]
 158  001B  0BE0        	add a,224
 158  001C  0080     E  	mov rb,a
 177  001D              #line 177 "E:\Project\17.HT66F4560_EVM_V1.0\CODE\HT66F4560_TuYa_FishTank_V1.0\souce\oled.c"
 177  001D  1F00     E  	clr rc
 177  001E  340A        	clr c
 177  001F  1A00     E  	rlca rb
 177  0020  0080     E  	mov rd,a
 177  0021  1A00     E  	rlca rc
 177  0022  0080     E  	mov re,a
 177  0023  0700     E  	mov a,rd
 177  0024  0380     E  	addm a,rb
 177  0025  0700     E  	mov a,re
 177  0026  1380     E  	adcm a,rc
 177  0027  340A        	clr c
 177  0028  1A80     E  	rlc rb
 177  0029  1A80     E  	rlc rc
 177  002A  0700     R  	mov a,_oled_showchar_2[5]
 177  002B  0380     E  	addm a,rb
 177  002C  3C0A        	sz c
 177  002D  1480     E  	inc rc
 177  002E  0F00     E  	mov a,low offset _F6x8
 177  002F  0300     E  	add a,rb
 177  0030  0083        	mov mp,a
 177  0031  0F00     E  	mov a,high offset _F6x8
 177  0032  1300     E  	adc a,rc
 177  0033  0084        	mov sbp,a
 177  0034              	fcall _Crom2Prom
 177  003B              	fcall _oled_write_dat
 176  0042              #line 176 "E:\Project\17.HT66F4560_EVM_V1.0\CODE\HT66F4560_TuYa_FishTank_V1.0\souce\oled.c"
 176  0042  1480     R  	inc _oled_showchar_2[5]
 176  0043  1780     R  	sdz _oled_showchar_2[4]
 176  0044  2800     R  	jmp _L27
 176  0045              _L23:
 176  0045  0003        	ret
 176  0046              _oled_showchar endp
 176  0046              #line 176 "E:\Project\17.HT66F4560_EVM_V1.0\CODE\HT66F4560_TuYa_FishTank_V1.0\souce\oled.c"
 176  0046              #pragma debug scope 1 1
 176  0046              public _oled_shownum
 176  0046              #pragma debug scope 12 1
 191  0046              #line 191 "E:\Project\17.HT66F4560_EVM_V1.0\CODE\HT66F4560_TuYa_FishTank_V1.0\souce\oled.c"
 191  0000              _oled_shownum .section 'code'
 191  0000              _oled_shownum proc
 191  0000              public _oled_shownum_2
 191  0000  0009[           local _oled_shownum_2 db 9 dup(?)	; 5,4
            00
            ]
 191  0000  0080     R  	mov _oled_shownum_2[5],a
 191  0001              #pragma debug variable 8 12 _oled_shownum_2+5 "x"
"File: oled.c        Assembler  Version HGASM0202      Page 10

 191  0001              #pragma debug variable 8 12 _oled_shownum_2+0 "y"
 191  0001              #pragma debug variable 12 12 _oled_shownum_2+1 "num"
 191  0001              #pragma debug variable 8 12 _oled_shownum_2+3 "len"
 191  0001              #pragma debug variable 8 12 _oled_shownum_2+4 "size2"
 191  0001              #pragma debug variable 8 12 _oled_shownum_2+6 "t"
 191  0001              #pragma debug variable 8 12 _oled_shownum_2+7 "enshow"
 203  0001              #line 203 "E:\Project\17.HT66F4560_EVM_V1.0\CODE\HT66F4560_TuYa_FishTank_V1.0\souce\oled.c"
 203  0001  1900     R  	rra _oled_shownum_2[4]
 203  0002  0E7F        	and a,07fh
 203  0003  0080     R  	mov _oled_shownum_2[8],a
 193  0004              #line 193 "E:\Project\17.HT66F4560_EVM_V1.0\CODE\HT66F4560_TuYa_FishTank_V1.0\souce\oled.c"
 193  0004  1F00     R  	clr _oled_shownum_2[7]
 195  0005              #line 195 "E:\Project\17.HT66F4560_EVM_V1.0\CODE\HT66F4560_TuYa_FishTank_V1.0\souce\oled.c"
 195  0005  1F00     R  	clr _oled_shownum_2[6]
 195  0006  2800     R  	jmp _L32
 195  0007              _L37:
 197  0007              #line 197 "E:\Project\17.HT66F4560_EVM_V1.0\CODE\HT66F4560_TuYa_FishTank_V1.0\souce\oled.c"
 197  0007  0700     R  	mov a,_oled_shownum_2[3]
 197  0008  0200     R  	sub a,_oled_shownum_2[6]
 197  0009  0080     E  	mov ra,a
 197  000A  1580     E  	dec ra
 197  000B              #pragma debug scope 13 12
 197  000B              ;begin block, line: 197.-1
 197  000B              #pragma debug scope 14 13
 197  000B              ;begin block, line: 197.-1
 143  000B              #line 143 "E:\Project\17.HT66F4560_EVM_V1.0\CODE\HT66F4560_TuYa_FishTank_V1.0\souce\oled.c"
 143  000B  0F01        	mov a,1
 143  000C  0080     E  	mov rb,a
 143  000D  1F00     E  	clr rc
 143  000E              _L33:
 144  000E              #line 144 "E:\Project\17.HT66F4560_EVM_V1.0\CODE\HT66F4560_TuYa_FishTank_V1.0\souce\oled.c"
 144  000E  1580     E  	dec ra
 144  000F  1600     E  	siza ra
 144  0010  2800     R  	jmp _LI1
 144  0011  2800     R  	jmp _L40
 144  0012              _LI1:
 144  0012  340A        	clr c
 144  0013  1A00     E  	rlca rb
 144  0014  0080     E  	mov rd,a
 144  0015  1A00     E  	rlca rc
 144  0016  0080     E  	mov re,a
 144  0017  340A        	clr c
 144  0018  1A80     E  	rlc rd
 144  0019  1A80     E  	rlc re
 144  001A  0700     E  	mov a,rd
 144  001B  0380     E  	addm a,rb
 144  001C  0700     E  	mov a,re
 144  001D  1380     E  	adcm a,rc
 144  001E  340A        	clr c
 144  001F  1A80     E  	rlc rb
 144  0020  1A80     E  	rlc rc
 144  0021  2800     R  	jmp _L33
 144  0022              _L40:
 144  0022              #pragma debug scope 13 12
 144  0022              #pragma debug scope 12 1
 197  0022              #line 197 "E:\Project\17.HT66F4560_EVM_V1.0\CODE\HT66F4560_TuYa_FishTank_V1.0\souce\oled.c"
 197  0022  1F00     E  	clr _builtin_holtek_udivmodhi4_2[6]
 197  0023  0700     R  	mov a,_oled_shownum_2[1]  
 197  0024  0080     E  	mov _builtin_holtek_udivmodhi4_2[0],a  
 197  0025  0700     R  	mov a,_oled_shownum_2[2]  
"File: oled.c        Assembler  Version HGASM0202      Page 11

 197  0026  0080     E  	mov _builtin_holtek_udivmodhi4_2[1],a
 197  0027  0700     E  	mov a,rb  
 197  0028  0080     E  	mov _builtin_holtek_udivmodhi4_2[2],a  
 197  0029  0700     E  	mov a,rc  
 197  002A  0080     E  	mov _builtin_holtek_udivmodhi4_2[3],a
 197  002B              	fcall _builtin_holtek_udivmodhi4
 197  0032  0700     E  	mov a,_builtin_holtek_udivmodhi4_2[0]  
 197  0033  0080     E  	mov rb,a  
 197  0034  0700     E  	mov a,_builtin_holtek_udivmodhi4_2[1]  
 197  0035  0080     E  	mov rc,a
 197  0036  1F00     E  	clr _builtin_holtek_udivmodhi4_2[6]
 197  0037  0700     E  	mov a,rb  
 197  0038  0080     E  	mov _builtin_holtek_udivmodhi4_2[0],a  
 197  0039  0700     E  	mov a,rc  
 197  003A  0080     E  	mov _builtin_holtek_udivmodhi4_2[1],a
 197  003B  0F0A        	mov a,10  
 197  003C  0080     E  	mov _builtin_holtek_udivmodhi4_2[2],a  
 197  003D  1F00     E  	clr _builtin_holtek_udivmodhi4_2[3]
 197  003E              	fcall _builtin_holtek_udivmodhi4
 197  0045  0700     E  	mov a,_builtin_holtek_udivmodhi4_2[4]  
 197  0046  0080     E  	mov rb,a  
 197  0047  0700     E  	mov a,_builtin_holtek_udivmodhi4_2[5]  
 197  0048  0080     E  	mov rc,a
 198  0049              #line 198 "E:\Project\17.HT66F4560_EVM_V1.0\CODE\HT66F4560_TuYa_FishTank_V1.0\souce\oled.c"
 198  0049  1080     R  	sz _oled_shownum_2[7]
 198  004A  2800     R  	jmp _L35
 198  004B  0700     R  	mov a,_oled_shownum_2[6]
 198  004C  0080     E  	mov rf,a
 198  004D  1F00     E  	clr rg
 198  004E  0FFF        	mov a,255
 198  004F  0300     R  	add a,_oled_shownum_2[3]
 198  0050  0080     E  	mov rd,a
 198  0051  0FFF        	mov a,255
 198  0052  1F00     E  	clr re
 198  0053  1380     E  	adcm a,re
 198  0054  0700     E  	mov a,rf
 198  0055  0200     E  	sub a,rd
 198  0056  0700     E  	mov a,rg
 198  0057  1200     E  	sbc a,re
 198  0058  3B8A        	snz sc
 198  0059  2800     R  	jmp _L35
 200  005A              #line 200 "E:\Project\17.HT66F4560_EVM_V1.0\CODE\HT66F4560_TuYa_FishTank_V1.0\souce\oled.c"
 200  005A  1080     E  	sz rb
 200  005B  2800     R  	jmp _L38
 203  005C              #line 203 "E:\Project\17.HT66F4560_EVM_V1.0\CODE\HT66F4560_TuYa_FishTank_V1.0\souce\oled.c"
 203  005C  0700     R  	mov a,_oled_shownum_2[6]
 203  005D  0080     E  	mov _builtin_holtek_mulqi3_2[0],a
 203  005E  0700     R  	mov a,_oled_shownum_2[8]
 203  005F              	fcall _builtin_holtek_mulqi3
 203  0066  0700     E  	mov a,_builtin_holtek_mulqi3_2[1]
 203  0067  0080     E  	mov ra,a
 203  0068  0700     R  	mov a,_oled_shownum_2[5]
 203  0069  0380     E  	addm a,ra
 203  006A  0700     R  	mov a,_oled_shownum_2[4]
 203  006B  0080     R  	mov _oled_showchar_2[2],a
 203  006C  0F30        	mov a,48
 203  006D  0080     R  	mov _oled_showchar_2[1],a
 203  006E  2800     R  	jmp _L39
 203  006F              _L38:
 205  006F              #line 205 "E:\Project\17.HT66F4560_EVM_V1.0\CODE\HT66F4560_TuYa_FishTank_V1.0\souce\oled.c"
"File: oled.c        Assembler  Version HGASM0202      Page 12

 205  006F  0F01        	mov a,1
 205  0070  0080     R  	mov _oled_shownum_2[7],a
 205  0071              _L35:
 208  0071              #line 208 "E:\Project\17.HT66F4560_EVM_V1.0\CODE\HT66F4560_TuYa_FishTank_V1.0\souce\oled.c"
 208  0071  0700     R  	mov a,_oled_shownum_2[6]
 208  0072  0080     E  	mov _builtin_holtek_mulqi3_2[0],a
 208  0073  0700     R  	mov a,_oled_shownum_2[8]
 208  0074              	fcall _builtin_holtek_mulqi3
 208  007B  0700     E  	mov a,_builtin_holtek_mulqi3_2[1]
 208  007C  0080     E  	mov ra,a
 208  007D  0700     R  	mov a,_oled_shownum_2[5]
 208  007E  0380     E  	addm a,ra
 208  007F  0700     R  	mov a,_oled_shownum_2[4]
 208  0080  0080     R  	mov _oled_showchar_2[2],a
 208  0081  0700     E  	mov a,rb
 208  0082  0B30        	add a,48
 208  0083  0080     R  	mov _oled_showchar_2[1],a
 208  0084              _L39:
 208  0084  0700     R  	mov a,_oled_shownum_2[0]
 208  0085  0080     R  	mov _oled_showchar_2[0],a
 208  0086  0700     E  	mov a,ra
 208  0087              	fcall _oled_showchar
 195  008E              #line 195 "E:\Project\17.HT66F4560_EVM_V1.0\CODE\HT66F4560_TuYa_FishTank_V1.0\souce\oled.c"
 195  008E  1480     R  	inc _oled_shownum_2[6]
 195  008F              _L32:
 195  008F  0700     R  	mov a,_oled_shownum_2[6]
 195  0090  0200     R  	sub a,_oled_shownum_2[3]
 195  0091  380A        	snz c
 195  0092  2800     R  	jmp _L37
 195  0093  0003        	ret
 195  0094              _oled_shownum endp
 195  0094              #line 195 "E:\Project\17.HT66F4560_EVM_V1.0\CODE\HT66F4560_TuYa_FishTank_V1.0\souce\oled.c"
 195  0094              #pragma debug scope 1 1
 195  0094              public _oled_showstring
 195  0094              #pragma debug scope 15 1
 221  0094              #line 221 "E:\Project\17.HT66F4560_EVM_V1.0\CODE\HT66F4560_TuYa_FishTank_V1.0\souce\oled.c"
 221  0000              _oled_showstring .section 'code'
 221  0000              _oled_showstring proc
 221  0000              public _oled_showstring_2
 221  0000  0006[           local _oled_showstring_2 db 6 dup(?)	; 4,2
            00
            ]
 221  0000  0080     R  	mov _oled_showstring_2[4],a
 221  0001              #pragma debug variable 8 15 _oled_showstring_2+4 "x"
 221  0001              #pragma debug variable 8 15 _oled_showstring_2+0 "y"
 221  0001              #pragma debug pointer 42 7 15
 221  0001              #pragma debug pointer 42 7 15
 221  0001              #pragma debug variable 42 15 _oled_showstring_2+1 "str"
 221  0001              #pragma debug variable 8 15 _oled_showstring_2+3 "size"
 221  0001              #pragma debug variable 8 15 _oled_showstring_2+5 "j"
 222  0001              #line 222 "E:\Project\17.HT66F4560_EVM_V1.0\CODE\HT66F4560_TuYa_FishTank_V1.0\souce\oled.c"
 222  0001  1F00     R  	clr _oled_showstring_2[5]
 223  0002              #line 223 "E:\Project\17.HT66F4560_EVM_V1.0\CODE\HT66F4560_TuYa_FishTank_V1.0\souce\oled.c"
 223  0002  2800     R  	jmp _L42
 223  0003              _L44:
 225  0003              #line 225 "E:\Project\17.HT66F4560_EVM_V1.0\CODE\HT66F4560_TuYa_FishTank_V1.0\souce\oled.c"
 225  0003  0700     R  	mov a,_oled_showstring_2[3]
 225  0004  0080     R  	mov _oled_showchar_2[2],a
 225  0005  0700     E  	mov a,ra
 225  0006  0080     R  	mov _oled_showchar_2[1],a
"File: oled.c        Assembler  Version HGASM0202      Page 13

 225  0007  0700     R  	mov a,_oled_showstring_2[0]
 225  0008  0080     R  	mov _oled_showchar_2[0],a
 225  0009  0700     R  	mov a,_oled_showstring_2[4]
 225  000A              	fcall _oled_showchar
 226  0011              #line 226 "E:\Project\17.HT66F4560_EVM_V1.0\CODE\HT66F4560_TuYa_FishTank_V1.0\souce\oled.c"
 226  0011  0F08        	mov a,8
 226  0012  0380     R  	addm a,_oled_showstring_2[4]
 227  0013              #line 227 "E:\Project\17.HT66F4560_EVM_V1.0\CODE\HT66F4560_TuYa_FishTank_V1.0\souce\oled.c"
 227  0013  0F78        	mov a,120
 227  0014  0200     R  	sub a,_oled_showstring_2[4]
 227  0015  3C0A        	sz c
 227  0016  2800     R  	jmp _L43
 229  0017              #line 229 "E:\Project\17.HT66F4560_EVM_V1.0\CODE\HT66F4560_TuYa_FishTank_V1.0\souce\oled.c"
 229  0017  0F02        	mov a,2
 229  0018  0380     R  	addm a,_oled_showstring_2[0]
 229  0019  1F00     R  	clr _oled_showstring_2[4]
 229  001A              _L43:
 231  001A              #line 231 "E:\Project\17.HT66F4560_EVM_V1.0\CODE\HT66F4560_TuYa_FishTank_V1.0\souce\oled.c"
 231  001A  1480     R  	inc _oled_showstring_2[5]
 231  001B              _L42:
 223  001B              #line 223 "E:\Project\17.HT66F4560_EVM_V1.0\CODE\HT66F4560_TuYa_FishTank_V1.0\souce\oled.c"
 223  001B  0700     R  	mov a,_oled_showstring_2[5]
 223  001C  0300     R  	add a,_oled_showstring_2[1]
 223  001D  0083        	mov mp,a
 223  001E  1F05        	clr acc
 223  001F  1300     R  	adc a,_oled_showstring_2[2]
 223  0020  0084        	mov sbp,a
 223  0021              	fcall _Crom2Prom
 223  0028  0080     E  	mov ra,a
 223  0029  1080     E  	sz ra
 223  002A  2800     R  	jmp _L44
 223  002B  0003        	ret
 223  002C              _oled_showstring endp
 223  002C              #line 223 "E:\Project\17.HT66F4560_EVM_V1.0\CODE\HT66F4560_TuYa_FishTank_V1.0\souce\oled.c"
 223  002C              #pragma debug scope 1 1
 223  002C              public _oled_showphoto
 223  002C              #pragma debug scope 16 1
 236  002C              #line 236 "E:\Project\17.HT66F4560_EVM_V1.0\CODE\HT66F4560_TuYa_FishTank_V1.0\souce\oled.c"
 236  0000              _oled_showphoto .section 'code'
 236  0000              _oled_showphoto proc
 236  0000              public _oled_showphoto_2
 236  0000  0009[           local _oled_showphoto_2 db 9 dup(?)	; 5,4
            00
            ]
 236  0000  0080     R  	mov _oled_showphoto_2[5],a
 236  0001              #pragma debug variable 8 16 _oled_showphoto_2+5 "x0"
 236  0001              #pragma debug variable 8 16 _oled_showphoto_2+0 "y0"
 236  0001              #pragma debug variable 8 16 _oled_showphoto_2+1 "x1"
 236  0001              #pragma debug variable 8 16 _oled_showphoto_2+2 "y1"
 236  0001              #pragma debug pointer 43 8 16
 236  0001              #pragma debug pointer 43 8 16
 236  0001              #pragma debug variable 43 16 _oled_showphoto_2+3 "BMP"
 236  0001              #pragma debug variable 12 16 _oled_showphoto_2+6 "j"
 237  0001              #line 237 "E:\Project\17.HT66F4560_EVM_V1.0\CODE\HT66F4560_TuYa_FishTank_V1.0\souce\oled.c"
 237  0001  1F00     R  	clr _oled_showphoto_2[6]
 237  0002  1F00     R  	clr _oled_showphoto_2[7]
 245  0003              #line 245 "E:\Project\17.HT66F4560_EVM_V1.0\CODE\HT66F4560_TuYa_FishTank_V1.0\souce\oled.c"
 245  0003  2800     R  	jmp _L46
 245  0004              _L49:
 247  0004              #line 247 "E:\Project\17.HT66F4560_EVM_V1.0\CODE\HT66F4560_TuYa_FishTank_V1.0\souce\oled.c"
"File: oled.c        Assembler  Version HGASM0202      Page 14

 247  0004  0700     R  	mov a,_oled_showphoto_2[0]
 247  0005  0080     R  	mov _oled_set_pos_2[0],a
 247  0006  0700     R  	mov a,_oled_showphoto_2[5]
 247  0007              	fcall _oled_set_pos
 248  000E              #line 248 "E:\Project\17.HT66F4560_EVM_V1.0\CODE\HT66F4560_TuYa_FishTank_V1.0\souce\oled.c"
 248  000E  0700     R  	mov a,_oled_showphoto_2[5]
 248  000F  0080     R  	mov _oled_showphoto_2[8],a
 248  0010              _L47:
 248  0010  0700     R  	mov a,_oled_showphoto_2[8]
 248  0011  0200     R  	sub a,_oled_showphoto_2[1]
 248  0012  3C0A        	sz c
 248  0013  2800     R  	jmp _L50
 249  0014              #line 249 "E:\Project\17.HT66F4560_EVM_V1.0\CODE\HT66F4560_TuYa_FishTank_V1.0\souce\oled.c"
 249  0014  0700     R  	mov a,_oled_showphoto_2[6]
 249  0015  0300     R  	add a,_oled_showphoto_2[3]
 249  0016  0083        	mov mp,a
 249  0017  0700     R  	mov a,_oled_showphoto_2[7]
 249  0018  1300     R  	adc a,_oled_showphoto_2[4]
 249  0019  0084        	mov sbp,a
 249  001A              	fcall _Crom2Prom
 249  0021              	fcall _oled_write_dat
 248  0028              #line 248 "E:\Project\17.HT66F4560_EVM_V1.0\CODE\HT66F4560_TuYa_FishTank_V1.0\souce\oled.c"
 248  0028  1480     R  	inc _oled_showphoto_2[8]
 248  0029  1480     R  	inc _oled_showphoto_2[6]
 248  002A  3D0A        	sz z
 248  002B  1480     R  	inc _oled_showphoto_2[7]
 248  002C  2800     R  	jmp _L47
 248  002D              _L50:
 245  002D              #line 245 "E:\Project\17.HT66F4560_EVM_V1.0\CODE\HT66F4560_TuYa_FishTank_V1.0\souce\oled.c"
 245  002D  1480     R  	inc _oled_showphoto_2[0]
 245  002E              _L46:
 245  002E  0700     R  	mov a,_oled_showphoto_2[0]
 245  002F  0200     R  	sub a,_oled_showphoto_2[2]
 245  0030  380A        	snz c
 245  0031  2800     R  	jmp _L49
 245  0032  0003        	ret
 245  0033              _oled_showphoto endp
 245  0033              #line 245 "E:\Project\17.HT66F4560_EVM_V1.0\CODE\HT66F4560_TuYa_FishTank_V1.0\souce\oled.c"
 245  0033              #pragma debug scope 1 1
 245  0033              public _oled_clear
 245  0033              #pragma debug scope 17 1
 318  0033              #line 318 "E:\Project\17.HT66F4560_EVM_V1.0\CODE\HT66F4560_TuYa_FishTank_V1.0\souce\oled.c"
 318  0000              _oled_clear .section 'code'
 318  0000              _oled_clear proc
 318  0000  0002[           local _oled_clear_2 db 2 dup(?)	; 0,2
            00
            ]
 318  0002              #pragma debug variable 8 17 _oled_clear_2+0 "i"
 318  0002              #pragma debug variable 8 17 _oled_clear_2+1 "n"
 320  0002              #line 320 "E:\Project\17.HT66F4560_EVM_V1.0\CODE\HT66F4560_TuYa_FishTank_V1.0\souce\oled.c"
 320  0000  1F00     R  	clr _oled_clear_2[0]
 320  0001              _L55:
 322  0001              #line 322 "E:\Project\17.HT66F4560_EVM_V1.0\CODE\HT66F4560_TuYa_FishTank_V1.0\souce\oled.c"
 322  0001  0700     R  	mov a,_oled_clear_2[0]
 322  0002  0BB0        	add a,176
 322  0003  0080     E  	mov ra,a
 322  0004  0700     E  	mov a,ra
 322  0005              	fcall _oled_write_cmd
 323  000C              #line 323 "E:\Project\17.HT66F4560_EVM_V1.0\CODE\HT66F4560_TuYa_FishTank_V1.0\souce\oled.c"
 323  000C  0F00        	mov a,0
"File: oled.c        Assembler  Version HGASM0202      Page 15

 323  000D              	fcall _oled_write_cmd
 324  0014              #line 324 "E:\Project\17.HT66F4560_EVM_V1.0\CODE\HT66F4560_TuYa_FishTank_V1.0\souce\oled.c"
 324  0014  0F10        	mov a,16
 324  0015              	fcall _oled_write_cmd
 325  001C              #line 325 "E:\Project\17.HT66F4560_EVM_V1.0\CODE\HT66F4560_TuYa_FishTank_V1.0\souce\oled.c"
 325  001C  1F00     R  	clr _oled_clear_2[1]
 325  001D              _L52:
 326  001D              #line 326 "E:\Project\17.HT66F4560_EVM_V1.0\CODE\HT66F4560_TuYa_FishTank_V1.0\souce\oled.c"
 326  001D  0F00        	mov a,0
 326  001E              	fcall _oled_write_dat
 325  0025              #line 325 "E:\Project\17.HT66F4560_EVM_V1.0\CODE\HT66F4560_TuYa_FishTank_V1.0\souce\oled.c"
 325  0025  1480     R  	inc _oled_clear_2[1]
 325  0026  0700     R  	mov a,_oled_clear_2[1]
 325  0027  0A80        	sub a,128
 325  0028  390A        	snz z
 325  0029  2800     R  	jmp _L52
 320  002A              #line 320 "E:\Project\17.HT66F4560_EVM_V1.0\CODE\HT66F4560_TuYa_FishTank_V1.0\souce\oled.c"
 320  002A  1480     R  	inc _oled_clear_2[0]
 320  002B  0700     R  	mov a,_oled_clear_2[0]
 320  002C  0A08        	sub a,8
 320  002D  390A        	snz z
 320  002E  2800     R  	jmp _L55
 320  002F  0003        	ret
 320  0030              _oled_clear endp
 320  0030              #line 320 "E:\Project\17.HT66F4560_EVM_V1.0\CODE\HT66F4560_TuYa_FishTank_V1.0\souce\oled.c"
 320  0030              #pragma debug scope 1 1
 320  0030              public _oled_init
 320  0030              #pragma debug scope 18 1
 260  0030              #line 260 "E:\Project\17.HT66F4560_EVM_V1.0\CODE\HT66F4560_TuYa_FishTank_V1.0\souce\oled.c"
 260  0000              _oled_init .section 'code'
 260  0000              _oled_init proc
 262  0000              #line 262 "E:\Project\17.HT66F4560_EVM_V1.0\CODE\HT66F4560_TuYa_FishTank_V1.0\souce\oled.c"
 262  0000  36A6        	clr [38].5
 263  0001              #line 263 "E:\Project\17.HT66F4560_EVM_V1.0\CODE\HT66F4560_TuYa_FishTank_V1.0\souce\oled.c"
 263  0001  3615        	clr [21].4
 270  0002              #line 270 "E:\Project\17.HT66F4560_EVM_V1.0\CODE\HT66F4560_TuYa_FishTank_V1.0\souce\oled.c"
 270  0002  0FAE        	mov a,174
 270  0003              	fcall _oled_write_cmd
 272  000A              #line 272 "E:\Project\17.HT66F4560_EVM_V1.0\CODE\HT66F4560_TuYa_FishTank_V1.0\souce\oled.c"
 272  000A  0F00        	mov a,0
 272  000B              	fcall _oled_write_cmd
 273  0012              #line 273 "E:\Project\17.HT66F4560_EVM_V1.0\CODE\HT66F4560_TuYa_FishTank_V1.0\souce\oled.c"
 273  0012  0F10        	mov a,16
 273  0013              	fcall _oled_write_cmd
 274  001A              #line 274 "E:\Project\17.HT66F4560_EVM_V1.0\CODE\HT66F4560_TuYa_FishTank_V1.0\souce\oled.c"
 274  001A  0F40        	mov a,64
 274  001B              	fcall _oled_write_cmd
 275  0022              #line 275 "E:\Project\17.HT66F4560_EVM_V1.0\CODE\HT66F4560_TuYa_FishTank_V1.0\souce\oled.c"
 275  0022  0FB0        	mov a,176
 275  0023              	fcall _oled_write_cmd
 277  002A              #line 277 "E:\Project\17.HT66F4560_EVM_V1.0\CODE\HT66F4560_TuYa_FishTank_V1.0\souce\oled.c"
 277  002A  0F81        	mov a,129
 277  002B              	fcall _oled_write_cmd
 278  0032              #line 278 "E:\Project\17.HT66F4560_EVM_V1.0\CODE\HT66F4560_TuYa_FishTank_V1.0\souce\oled.c"
 278  0032  0FFF        	mov a,255
 278  0033              	fcall _oled_write_cmd
 280  003A              #line 280 "E:\Project\17.HT66F4560_EVM_V1.0\CODE\HT66F4560_TuYa_FishTank_V1.0\souce\oled.c"
 280  003A  0FA1        	mov a,161
 280  003B              	fcall _oled_write_cmd
 281  0042              #line 281 "E:\Project\17.HT66F4560_EVM_V1.0\CODE\HT66F4560_TuYa_FishTank_V1.0\souce\oled.c"
"File: oled.c        Assembler  Version HGASM0202      Page 16

 281  0042  0FA6        	mov a,166
 281  0043              	fcall _oled_write_cmd
 283  004A              #line 283 "E:\Project\17.HT66F4560_EVM_V1.0\CODE\HT66F4560_TuYa_FishTank_V1.0\souce\oled.c"
 283  004A  0FA8        	mov a,168
 283  004B              	fcall _oled_write_cmd
 284  0052              #line 284 "E:\Project\17.HT66F4560_EVM_V1.0\CODE\HT66F4560_TuYa_FishTank_V1.0\souce\oled.c"
 284  0052  0F3F        	mov a,63
 284  0053              	fcall _oled_write_cmd
 286  005A              #line 286 "E:\Project\17.HT66F4560_EVM_V1.0\CODE\HT66F4560_TuYa_FishTank_V1.0\souce\oled.c"
 286  005A  0FC8        	mov a,200
 286  005B              	fcall _oled_write_cmd
 288  0062              #line 288 "E:\Project\17.HT66F4560_EVM_V1.0\CODE\HT66F4560_TuYa_FishTank_V1.0\souce\oled.c"
 288  0062  0FD3        	mov a,211
 288  0063              	fcall _oled_write_cmd
 289  006A              #line 289 "E:\Project\17.HT66F4560_EVM_V1.0\CODE\HT66F4560_TuYa_FishTank_V1.0\souce\oled.c"
 289  006A  0F00        	mov a,0
 289  006B              	fcall _oled_write_cmd
 291  0072              #line 291 "E:\Project\17.HT66F4560_EVM_V1.0\CODE\HT66F4560_TuYa_FishTank_V1.0\souce\oled.c"
 291  0072  0FD5        	mov a,213
 291  0073              	fcall _oled_write_cmd
 292  007A              #line 292 "E:\Project\17.HT66F4560_EVM_V1.0\CODE\HT66F4560_TuYa_FishTank_V1.0\souce\oled.c"
 292  007A  0F80        	mov a,128
 292  007B              	fcall _oled_write_cmd
 294  0082              #line 294 "E:\Project\17.HT66F4560_EVM_V1.0\CODE\HT66F4560_TuYa_FishTank_V1.0\souce\oled.c"
 294  0082  0FD9        	mov a,217
 294  0083              	fcall _oled_write_cmd
 295  008A              #line 295 "E:\Project\17.HT66F4560_EVM_V1.0\CODE\HT66F4560_TuYa_FishTank_V1.0\souce\oled.c"
 295  008A  0FF1        	mov a,241
 295  008B              	fcall _oled_write_cmd
 297  0092              #line 297 "E:\Project\17.HT66F4560_EVM_V1.0\CODE\HT66F4560_TuYa_FishTank_V1.0\souce\oled.c"
 297  0092  0FDA        	mov a,218
 297  0093              	fcall _oled_write_cmd
 298  009A              #line 298 "E:\Project\17.HT66F4560_EVM_V1.0\CODE\HT66F4560_TuYa_FishTank_V1.0\souce\oled.c"
 298  009A  0F12        	mov a,18
 298  009B              	fcall _oled_write_cmd
 300  00A2              #line 300 "E:\Project\17.HT66F4560_EVM_V1.0\CODE\HT66F4560_TuYa_FishTank_V1.0\souce\oled.c"
 300  00A2  0FDB        	mov a,219
 300  00A3              	fcall _oled_write_cmd
 301  00AA              #line 301 "E:\Project\17.HT66F4560_EVM_V1.0\CODE\HT66F4560_TuYa_FishTank_V1.0\souce\oled.c"
 301  00AA  0F40        	mov a,64
 301  00AB              	fcall _oled_write_cmd
 303  00B2              #line 303 "E:\Project\17.HT66F4560_EVM_V1.0\CODE\HT66F4560_TuYa_FishTank_V1.0\souce\oled.c"
 303  00B2  0F8D        	mov a,141
 303  00B3              	fcall _oled_write_cmd
 304  00BA              #line 304 "E:\Project\17.HT66F4560_EVM_V1.0\CODE\HT66F4560_TuYa_FishTank_V1.0\souce\oled.c"
 304  00BA  0F14        	mov a,20
 304  00BB              	fcall _oled_write_cmd
 306  00C2              #line 306 "E:\Project\17.HT66F4560_EVM_V1.0\CODE\HT66F4560_TuYa_FishTank_V1.0\souce\oled.c"
 306  00C2  0FAF        	mov a,175
 306  00C3              	fcall _oled_write_cmd
 307  00CA              #line 307 "E:\Project\17.HT66F4560_EVM_V1.0\CODE\HT66F4560_TuYa_FishTank_V1.0\souce\oled.c"
 307  00CA              	fcall _oled_clear
 308  00D1              #line 308 "E:\Project\17.HT66F4560_EVM_V1.0\CODE\HT66F4560_TuYa_FishTank_V1.0\souce\oled.c"
 308  00D1  1F00     R  	clr _oled_set_pos_2[0]
 308  00D2  0F00        	mov a,0
 308  00D3              	fcall _oled_set_pos
 308  00DA  0003        	ret
 308  00DB              _oled_init endp
 308  00DB              #line 308 "E:\Project\17.HT66F4560_EVM_V1.0\CODE\HT66F4560_TuYa_FishTank_V1.0\souce\oled.c"
 308  00DB              #pragma debug scope 1 1
"File: oled.c        Assembler  Version HGASM0202      Page 17

 308  00DB              public _oled_clear_hang
 308  00DB              #pragma debug scope 19 1
 330  00DB              #line 330 "E:\Project\17.HT66F4560_EVM_V1.0\CODE\HT66F4560_TuYa_FishTank_V1.0\souce\oled.c"
 330  0000              _oled_clear_hang .section 'code'
 330  0000              _oled_clear_hang proc
 330  0000  0002[           local _oled_clear_hang_2 db 2 dup(?)	; 0,2
            00
            ]
 330  0000  0080     E  	mov ra,a
 330  0001              #pragma debug variable 8 19 _oled_clear_hang_2+0 "hang"
 330  0001              #pragma debug variable 8 19 _oled_clear_hang_2+1 "n"
 332  0001              #line 332 "E:\Project\17.HT66F4560_EVM_V1.0\CODE\HT66F4560_TuYa_FishTank_V1.0\souce\oled.c"
 332  0001  0F07        	mov a,7
 332  0002  0200     E  	sub a,ra
 332  0003  380A        	snz c
 332  0004  2800     R  	jmp _L57
 334  0005              #line 334 "E:\Project\17.HT66F4560_EVM_V1.0\CODE\HT66F4560_TuYa_FishTank_V1.0\souce\oled.c"
 334  0005  0FB0        	mov a,176
 334  0006  0380     E  	addm a,ra
 334  0007  0700     E  	mov a,ra
 334  0008              	fcall _oled_write_cmd
 335  000F              #line 335 "E:\Project\17.HT66F4560_EVM_V1.0\CODE\HT66F4560_TuYa_FishTank_V1.0\souce\oled.c"
 335  000F  0F00        	mov a,0
 335  0010              	fcall _oled_write_cmd
 336  0017              #line 336 "E:\Project\17.HT66F4560_EVM_V1.0\CODE\HT66F4560_TuYa_FishTank_V1.0\souce\oled.c"
 336  0017  0F10        	mov a,16
 336  0018              	fcall _oled_write_cmd
 337  001F              #line 337 "E:\Project\17.HT66F4560_EVM_V1.0\CODE\HT66F4560_TuYa_FishTank_V1.0\souce\oled.c"
 337  001F  1F00     R  	clr _oled_clear_hang_2[1]
 337  0020              _L59:
 338  0020              #line 338 "E:\Project\17.HT66F4560_EVM_V1.0\CODE\HT66F4560_TuYa_FishTank_V1.0\souce\oled.c"
 338  0020  0F00        	mov a,0
 338  0021              	fcall _oled_write_dat
 337  0028              #line 337 "E:\Project\17.HT66F4560_EVM_V1.0\CODE\HT66F4560_TuYa_FishTank_V1.0\souce\oled.c"
 337  0028  1480     R  	inc _oled_clear_hang_2[1]
 337  0029  0700     R  	mov a,_oled_clear_hang_2[1]
 337  002A  0A80        	sub a,128
 337  002B  390A        	snz z
 337  002C  2800     R  	jmp _L59
 337  002D              _L57:
 337  002D  0003        	ret
 337  002E              _oled_clear_hang endp
 337  002E              #line 337 "E:\Project\17.HT66F4560_EVM_V1.0\CODE\HT66F4560_TuYa_FishTank_V1.0\souce\oled.c"
 337  002E              #pragma debug scope 1 1
 337  002E              #pragma debug struct_end
 337  002E              #pragma debug struct_end
 337  002E              #pragma debug union_end
 337  002E              #pragma debug union_end
 337  002E              #pragma debug variable 45 1 ___pa "__pa" 1
 337  002E              #pragma debug struct_end
 337  002E              #pragma debug struct_end
 337  002E              #pragma debug union_end
 337  002E              #pragma debug union_end
 337  002E              #pragma debug variable 47 1 ___pac "__pac" 1
 337  002E              #pragma debug struct_end
 337  002E              #pragma debug struct_end
 337  002E              #pragma debug union_end
 337  002E              #pragma debug union_end
 337  002E              #pragma debug variable 49 1 ___pb "__pb" 1
 337  002E              #pragma debug struct_end
"File: oled.c        Assembler  Version HGASM0202      Page 18

 337  002E              #pragma debug struct_end
 337  002E              #pragma debug union_end
 337  002E              #pragma debug union_end
 337  002E              #pragma debug variable 51 1 ___pbc "__pbc" 1
 337  002E              #pragma debug struct_end
 337  002E              #pragma debug struct_end
 337  002E              #pragma debug union_end
 337  002E              #pragma debug union_end
 337  002E              #pragma debug variable 53 1 ___pbpu "__pbpu" 1
 337  002E              
 337  002E              ; output external variables
 337  002E              extern _F6x8:near
 337  002E              extern _builtin_holtek_mulhi3_2:byte
 337  002E              extern _builtin_holtek_mulhi3:near
 337  002E              extern _builtin_holtek_udivmodhi4_2:byte
 337  002E              extern _builtin_holtek_udivmodhi4:near
 337  002E              extern _builtin_holtek_mulqi3_2:byte
 337  002E              extern _builtin_holtek_mulqi3:near
 337  002E              
 337  002E              ; 
 337  002E              ; Generated by holtek-gcc v3.19, Thu Mar 25 17:35:55 2021
 337  002E              ; Rebuild 718
 337  002E              ; end of file


        0 Errors, 0