"File: system.h      Assembler  Version HGASM0202      Page 1


   1  0000              ; Generated by holtek-gcc v3.19, Thu Mar 25 17:36:01 2021
   2  0000              ; 
   3  0000              ; Configuration:
   4  0000              ;       with long instruction
   5  0000              ;       Multi-ROM, Multi-RAM
   6  0000              ;       bits_per_rom_unit:16
   7  0000              ;       with mp1
   8  0000              ;       with tbhp, address(0x9)
   9  0000              ;          Use tabrd-const
  10  0000              ;       
  11  0000              ; SFR address of long-instruction arch:
  12  0000              ;    mp0 = -1,1,0
  13  0000              ;    mp1 = 4,3,2
  14  0000              ;    mp2 = 14,13,12
  15  0000              ;    tbp = 9,7,8
  16  0000              ;    acc = 5
  17  0000              ;    pcl = 6
  18  0000              ;    status = 10
  19  0000              ;    bp = 11
  20  0000              ;    intc = 75
  21  0000              ;       
  22  0000              ;       
  23  0000              ; use 'tabrdc' instead of 'tabrd'
  24  0000              ;       
  25  0000              
  26  0000              #pragma translator "holtek-gcc 4.6.4" "3.19" "build 20130711"
  27  0000              ; Rebuild 718
  28  0000              
  29  0000              ir equ [2]
  30  0000              mp equ [3]
  31  0000              sbp equ [4]
  32  0000              acc equ [5]
  33  0000              bp equ [11]
  34  0000              tblp equ [7]
  35  0000              tbhp equ [9]
  36  0000              status equ [10]
  37  0000              c equ [10].0
  38  0000              ac equ [10].1
  39  0000              z equ [10].2
  40  0000              ov equ [10].3
  41  0000              cz equ [10].6
  42  0000              sc equ [10].7
  43  0000              intc equ [75]
  44  0000              
  45  0000              extern ra:byte
  46  0000              extern rb:byte
  47  0000              extern rc:byte
  48  0000              extern rd:byte
  49  0000              extern re:byte
  50  0000              extern rf:byte
  51  0000              extern rg:byte
  52  0000              extern rh:byte
  53  0000              extern _Crom2Prom:near
  54  0000              extern _Crom2PromNext:near
  55  0000              
  56  0000              RAMBANK 0 @BITDATASEC, @BITDATASEC1
  57  0000              @HCCINIT	.section 'data'
  58  0000              @HCCINIT0	.section 'data'
  59  0000              @BITDATASEC	 .section 'data'
"File: system.ASM    Assembler  Version HGASM0202      Page 2

  60  0000              @BITDATASEC1	 .section 'data'
  61  0000              
  62  0000              #pragma debug scope 1 1
  63  0000              public _set_wifi_uart_byte
  64  0000              #pragma debug scope 2 1

  35  0000              #line 35 "E:\Project\17.HT66F4560_EVM_V1.0\CODE\HT66F4560_TuYa_FishTank_V1.0\mcu_sdk\system.c"
  35  0000              _set_wifi_uart_byte .section 'code'
  35  0000              _set_wifi_uart_byte proc
  35  0000              public _set_wifi_uart_byte_2
  35  0000  0003[           local _set_wifi_uart_byte_2 db 3 dup(?)	; 3,0
            00
            ]
  35  0003              #pragma debug variable 10 2 _set_wifi_uart_byte_2+0 "dest"
  35  0003              #pragma debug variable 8 2 _set_wifi_uart_byte_2+2 "byte"
  38  0003              #line 38 "E:\Project\17.HT66F4560_EVM_V1.0\CODE\HT66F4560_TuYa_FishTank_V1.0\mcu_sdk\system.c"
  38  0000  0F00     R  	mov a,low (offset _wifi_uart_tx_buf+6)
  38  0001  0300     R  	add a,_set_wifi_uart_byte_2[0]
  38  0002  0083        	mov mp,a
  38  0003  0F00     R  	mov a,high (offset _wifi_uart_tx_buf+6)
  38  0004  1300     R  	adc a,_set_wifi_uart_byte_2[1]
  38  0005  0084        	mov sbp,a
  38  0006  0700     R  	mov a,_set_wifi_uart_byte_2[2]
  38  0007  0082        	mov ir,a
  42  0008              #line 42 "E:\Project\17.HT66F4560_EVM_V1.0\CODE\HT66F4560_TuYa_FishTank_V1.0\mcu_sdk\system.c"
  42  0008  0F01        	mov a,1
  42  0009  0300     R  	add a,_set_wifi_uart_byte_2[0]
  42  000A  0080     E  	mov ra,a
  42  000B  0F00        	mov a,0
  42  000C  1300     R  	adc a,_set_wifi_uart_byte_2[1]
  42  000D  0080     E  	mov rb,a
  42  000E  0003        	ret
  42  000F              _set_wifi_uart_byte endp
  42  000F              #line 42 "E:\Project\17.HT66F4560_EVM_V1.0\CODE\HT66F4560_TuYa_FishTank_V1.0\mcu_sdk\system.c"
  42  000F              #pragma debug scope 1 1
  42  000F              public _set_wifi_uart_buffer
  42  000F              #pragma debug scope 3 1
  52  000F              #line 52 "E:\Project\17.HT66F4560_EVM_V1.0\CODE\HT66F4560_TuYa_FishTank_V1.0\mcu_sdk\system.c"
  52  0000              _set_wifi_uart_buffer .section 'code'
  52  0000              _set_wifi_uart_buffer proc
  52  0000              public _set_wifi_uart_buffer_2
  52  0000  0006[           local _set_wifi_uart_buffer_2 db 6 dup(?)	; 6,0
            00
            ]
  52  0006              #pragma debug variable 10 3 _set_wifi_uart_buffer_2+0 "dest"
  52  0006              #pragma debug pointer 42 8 3
  52  0006              #pragma debug pointer 42 8 3
  52  0006              #pragma debug variable 42 3 _set_wifi_uart_buffer_2+2 "src"
  52  0006              #pragma debug variable 10 3 _set_wifi_uart_buffer_2+4 "len"
  55  0006              #line 55 "E:\Project\17.HT66F4560_EVM_V1.0\CODE\HT66F4560_TuYa_FishTank_V1.0\mcu_sdk\system.c"
  55  0000  0700     R  	mov a,_set_wifi_uart_buffer_2[4]
  55  0001  0080     E  	mov _my_memcpy_2[4],a
  55  0002  0700     R  	mov a,_set_wifi_uart_buffer_2[5]
  55  0003  0080     E  	mov _my_memcpy_2[5],a
  55  0004  0700     R  	mov a,_set_wifi_uart_buffer_2[2]
  55  0005  0080     E  	mov _my_memcpy_2[2],a
  55  0006  0700     R  	mov a,_set_wifi_uart_buffer_2[3]
  55  0007  0080     E  	mov _my_memcpy_2[3],a
  55  0008  0F00     R  	mov a,low (offset _wifi_uart_tx_buf+6)
  55  0009  0300     R  	add a,_set_wifi_uart_buffer_2[0]
"File: system.c      Assembler  Version HGASM0202      Page 3

  55  000A  0080     E  	mov _my_memcpy_2[0],a
  55  000B  0F00     R  	mov a,high (offset _wifi_uart_tx_buf+6)
  55  000C  1300     R  	adc a,_set_wifi_uart_buffer_2[1]
  55  000D  0080     E  	mov _my_memcpy_2[1],a
  55  000E              	fcall _my_memcpy
  59  0015              #line 59 "E:\Project\17.HT66F4560_EVM_V1.0\CODE\HT66F4560_TuYa_FishTank_V1.0\mcu_sdk\system.c"
  59  0015  0700     R  	mov a,_set_wifi_uart_buffer_2[4]
  59  0016  0300     R  	add a,_set_wifi_uart_buffer_2[0]
  59  0017  0080     E  	mov ra,a
  59  0018  0700     R  	mov a,_set_wifi_uart_buffer_2[5]
  59  0019  1300     R  	adc a,_set_wifi_uart_buffer_2[1]
  59  001A  0080     E  	mov rb,a
  59  001B  0003        	ret
  59  001C              _set_wifi_uart_buffer endp
  59  001C              #line 59 "E:\Project\17.HT66F4560_EVM_V1.0\CODE\HT66F4560_TuYa_FishTank_V1.0\mcu_sdk\system.c"
  59  001C              #pragma debug scope 1 1
  59  001C              public _get_check_sum
  59  001C              #pragma debug scope 4 1
  68  001C              #line 68 "E:\Project\17.HT66F4560_EVM_V1.0\CODE\HT66F4560_TuYa_FishTank_V1.0\mcu_sdk\system.c"
  68  0000              _get_check_sum .section 'code'
  68  0000              _get_check_sum proc
  68  0000              public _get_check_sum_2
  68  0000  0004[           local _get_check_sum_2 db 4 dup(?)	; 4,0
            00
            ]
  68  0004              #pragma debug pointer 43 8 4
  68  0004              #pragma debug pointer 43 8 4
  68  0004              #pragma debug variable 43 4 _get_check_sum_2+0 "pack"
  68  0004              #pragma debug variable 10 4 _get_check_sum_2+2 "pack_len"
  68  0000  0700     R  	mov a,_get_check_sum_2[0]
  68  0001  0080     E  	mov rb,a
  68  0002  0700     R  	mov a,_get_check_sum_2[1]
  68  0003  0080     E  	mov rc,a
  68  0004  0700     R  	mov a,_get_check_sum_2[2]
  68  0005  0300     E  	add a,rb
  68  0006  0080     E  	mov rd,a
  68  0007  0700     R  	mov a,_get_check_sum_2[3]
  68  0008  1300     E  	adc a,rc
  68  0009  0080     E  	mov re,a
  70  000A              #line 70 "E:\Project\17.HT66F4560_EVM_V1.0\CODE\HT66F4560_TuYa_FishTank_V1.0\mcu_sdk\system.c"
  70  000A  1F00     E  	clr ra
  70  000B              _L4:
  72  000B              #line 72 "E:\Project\17.HT66F4560_EVM_V1.0\CODE\HT66F4560_TuYa_FishTank_V1.0\mcu_sdk\system.c"
  72  000B  0700     E  	mov a,rb
  72  000C  0200     E  	sub a,rd
  72  000D  0700     E  	mov a,rc
  72  000E  1200     E  	sbc a,re
  72  000F  3F0A        	sz cz
  72  0010  2800     R  	jmp _L7
  73  0011              #line 73 "E:\Project\17.HT66F4560_EVM_V1.0\CODE\HT66F4560_TuYa_FishTank_V1.0\mcu_sdk\system.c"
  73  0011  0700     E  	mov a,rb
  73  0012  0083        	mov mp,a
  73  0013  0700     E  	mov a,rc
  73  0014  0084        	mov sbp,a
  73  0015              	fcall _Crom2Prom
  73  001C  0080     E  	mov rf,a
  73  001D  0700     E  	mov a,rf
  73  001E  0380     E  	addm a,ra
  73  001F  1480     E  	inc rb
  73  0020  3D0A        	sz z
"File: system.c      Assembler  Version HGASM0202      Page 4

  73  0021  1480     E  	inc rc
  73  0022  2800     R  	jmp _L4
  73  0023              _L7:
  77  0023              #line 77 "E:\Project\17.HT66F4560_EVM_V1.0\CODE\HT66F4560_TuYa_FishTank_V1.0\mcu_sdk\system.c"
  77  0023  0700     E  	mov a,ra
  77  0024  0003        	ret
  77  0025              _get_check_sum endp
  77  0025              #line 77 "E:\Project\17.HT66F4560_EVM_V1.0\CODE\HT66F4560_TuYa_FishTank_V1.0\mcu_sdk\system.c"
  77  0025              #pragma debug scope 1 1
  77  0025              public _wifi_uart_write_frame
  77  0025              #pragma debug scope 5 1
 105  0025              #line 105 "E:\Project\17.HT66F4560_EVM_V1.0\CODE\HT66F4560_TuYa_FishTank_V1.0\mcu_sdk\system.c"
 105  0000              _wifi_uart_write_frame .section 'code'
 105  0000              _wifi_uart_write_frame proc
 105  0000              public _wifi_uart_write_frame_2
 105  0000  0008[           local _wifi_uart_write_frame_2 db 8 dup(?)	; 3,5
            00
            ]
 105  0000  0080     E  	mov ra,a
 105  0001  0080     R  	mov _wifi_uart_write_frame_2[3],a
 105  0002              #pragma debug variable 8 5 _wifi_uart_write_frame_2+3 "fr_type"
 105  0002              #pragma debug variable 8 5 _wifi_uart_write_frame_2+0 "fr_ver"
 105  0002              #pragma debug variable 10 5 _wifi_uart_write_frame_2+1 "len"
 108  0002              #line 108 "E:\Project\17.HT66F4560_EVM_V1.0\CODE\HT66F4560_TuYa_FishTank_V1.0\mcu_sdk\system.c"
 108  0002  0F55        	mov a,85
 108  0003  0080     R  	mov _wifi_uart_tx_buf[0],a
 109  0004              #line 109 "E:\Project\17.HT66F4560_EVM_V1.0\CODE\HT66F4560_TuYa_FishTank_V1.0\mcu_sdk\system.c"
 109  0004  0FAA        	mov a,170
 109  0005  0080     R  	mov _wifi_uart_tx_buf[1],a
 110  0006              #line 110 "E:\Project\17.HT66F4560_EVM_V1.0\CODE\HT66F4560_TuYa_FishTank_V1.0\mcu_sdk\system.c"
 110  0006  0700     R  	mov a,_wifi_uart_write_frame_2[0]
 110  0007  0080     R  	mov _wifi_uart_tx_buf[2],a
 111  0008              #line 111 "E:\Project\17.HT66F4560_EVM_V1.0\CODE\HT66F4560_TuYa_FishTank_V1.0\mcu_sdk\system.c"
 111  0008  0700     E  	mov a,ra
 111  0009  0080     R  	mov _wifi_uart_tx_buf[3],a
 112  000A              #line 112 "E:\Project\17.HT66F4560_EVM_V1.0\CODE\HT66F4560_TuYa_FishTank_V1.0\mcu_sdk\system.c"
 112  000A  0700     R  	mov a,_wifi_uart_write_frame_2[2]
 112  000B  0080     R  	mov _wifi_uart_tx_buf[4],a
 113  000C              #line 113 "E:\Project\17.HT66F4560_EVM_V1.0\CODE\HT66F4560_TuYa_FishTank_V1.0\mcu_sdk\system.c"
 113  000C  0700     R  	mov a,_wifi_uart_write_frame_2[1]
 113  000D  0080     R  	mov _wifi_uart_tx_buf[5],a
 115  000E              #line 115 "E:\Project\17.HT66F4560_EVM_V1.0\CODE\HT66F4560_TuYa_FishTank_V1.0\mcu_sdk\system.c"
 115  000E  0F07        	mov a,7
 115  000F  0300     R  	add a,_wifi_uart_write_frame_2[1]
 115  0010  0080     R  	mov _wifi_uart_write_frame_2[6],a
 115  0011  0F00        	mov a,0
 115  0012  1300     R  	adc a,_wifi_uart_write_frame_2[2]
 115  0013  0080     R  	mov _wifi_uart_write_frame_2[7],a
 116  0014              #line 116 "E:\Project\17.HT66F4560_EVM_V1.0\CODE\HT66F4560_TuYa_FishTank_V1.0\mcu_sdk\system.c"
 116  0014  0F06        	mov a,6
 116  0015  0300     R  	add a,_wifi_uart_write_frame_2[1]
 116  0016  0080     E  	mov rd,a
 116  0017  0F00        	mov a,0
 116  0018  1300     R  	adc a,_wifi_uart_write_frame_2[2]
 116  0019  0080     E  	mov re,a
 116  001A              #pragma debug scope 6 5
 116  001A              ;begin block, line: 116.-1
 116  001A              #pragma debug scope 7 6
 116  001A              ;begin block, line: 116.-1
  70  001A              #line 70 "E:\Project\17.HT66F4560_EVM_V1.0\CODE\HT66F4560_TuYa_FishTank_V1.0\mcu_sdk\system.c"
"File: system.c      Assembler  Version HGASM0202      Page 5

  70  001A  1F00     E  	clr ra
  72  001B              #line 72 "E:\Project\17.HT66F4560_EVM_V1.0\CODE\HT66F4560_TuYa_FishTank_V1.0\mcu_sdk\system.c"
  72  001B  1F00     E  	clr rb
  72  001C  1F00     E  	clr rc
  72  001D              _L9:
  72  001D              #line 72 "E:\Project\17.HT66F4560_EVM_V1.0\CODE\HT66F4560_TuYa_FishTank_V1.0\mcu_sdk\system.c"
  72  001D  0700     E  	mov a,rb
  72  001E  0200     E  	sub a,rd
  72  001F  0700     E  	mov a,rc
  72  0020  1200     E  	sbc a,re
  72  0021  3C0A        	sz c
  72  0022  2800     R  	jmp _L17
  73  0023              #line 73 "E:\Project\17.HT66F4560_EVM_V1.0\CODE\HT66F4560_TuYa_FishTank_V1.0\mcu_sdk\system.c"
  73  0023  0F00     R  	mov a,low offset _wifi_uart_tx_buf
  73  0024  0300     E  	add a,rb
  73  0025  0083        	mov mp,a
  73  0026  0F00     R  	mov a,high offset _wifi_uart_tx_buf
  73  0027  1300     E  	adc a,rc
  73  0028  0084        	mov sbp,a
  73  0029              	fcall _Crom2Prom
  73  0030  0080     E  	mov rf,a
  73  0031  0700     E  	mov a,rf
  73  0032  0380     E  	addm a,ra
  72  0033              #line 72 "E:\Project\17.HT66F4560_EVM_V1.0\CODE\HT66F4560_TuYa_FishTank_V1.0\mcu_sdk\system.c"
  72  0033  1480     E  	inc rb
  72  0034  3D0A        	sz z
  72  0035  1480     E  	inc rc
  72  0036  2800     R  	jmp _L9
  72  0037              _L17:
  72  0037              #pragma debug scope 6 5
  72  0037              #pragma debug scope 5 1
 117  0037              #line 117 "E:\Project\17.HT66F4560_EVM_V1.0\CODE\HT66F4560_TuYa_FishTank_V1.0\mcu_sdk\system.c"
 117  0037  0F00     R  	mov a,low offset _wifi_uart_tx_buf
 117  0038  0300     E  	add a,rd
 117  0039  0083        	mov mp,a
 117  003A  0F00     R  	mov a,high offset _wifi_uart_tx_buf
 117  003B  1300     E  	adc a,re
 117  003C  0084        	mov sbp,a
 117  003D  0700     E  	mov a,ra
 117  003E  0082        	mov ir,a
 117  003F              #pragma debug scope 8 5
 117  003F              ;begin block, line: 117.-1
 117  003F              #pragma debug scope 9 8
 117  003F              ;begin block, line: 117.-1
  87  003F              #line 87 "E:\Project\17.HT66F4560_EVM_V1.0\CODE\HT66F4560_TuYa_FishTank_V1.0\mcu_sdk\system.c"
  87  003F  0700     R  	mov a,_wifi_uart_write_frame_2[6]
  87  0040  0500     R  	or a,_wifi_uart_write_frame_2[7]
  87  0041  3D0A        	sz z
  87  0042  2800     R  	jmp _L8
  87  0043  1F00     R  	clr _wifi_uart_write_frame_2[4]
  87  0044  1F00     R  	clr _wifi_uart_write_frame_2[5]
  87  0045              _L12:
  92  0045              #line 92 "E:\Project\17.HT66F4560_EVM_V1.0\CODE\HT66F4560_TuYa_FishTank_V1.0\mcu_sdk\system.c"
  92  0045  0F00     R  	mov a,low offset _wifi_uart_tx_buf
  92  0046  0300     R  	add a,_wifi_uart_write_frame_2[4]
  92  0047  0083        	mov mp,a
  92  0048  0F00     R  	mov a,high offset _wifi_uart_tx_buf
  92  0049  1300     R  	adc a,_wifi_uart_write_frame_2[5]
  92  004A  0084        	mov sbp,a
  92  004B              	fcall _Crom2Prom
"File: system.c      Assembler  Version HGASM0202      Page 6

  92  0052              	fcall _uart_transmit_output
  92  0059  1480     R  	inc _wifi_uart_write_frame_2[4]
  92  005A  3D0A        	sz z
  92  005B  1480     R  	inc _wifi_uart_write_frame_2[5]
  91  005C              #line 91 "E:\Project\17.HT66F4560_EVM_V1.0\CODE\HT66F4560_TuYa_FishTank_V1.0\mcu_sdk\system.c"
  91  005C  0700     R  	mov a,_wifi_uart_write_frame_2[4]
  91  005D  0200     R  	sub a,_wifi_uart_write_frame_2[6]
  91  005E  0700     R  	mov a,_wifi_uart_write_frame_2[5]
  91  005F  1200     R  	sbc a,_wifi_uart_write_frame_2[7]
  91  0060  3B0A        	snz cz
  91  0061  2800     R  	jmp _L12
  91  0062              _L8:
  91  0062              #pragma debug scope 8 5
  91  0062              #pragma debug scope 5 1
  91  0062  0003        	ret
  91  0063              _wifi_uart_write_frame endp
  91  0063              #line 91 "E:\Project\17.HT66F4560_EVM_V1.0\CODE\HT66F4560_TuYa_FishTank_V1.0\mcu_sdk\system.c"
  91  0063              #pragma debug scope 1 1
  91  0000              @crom	.section 'crom'
  91  0000              _LC0:
  91  0000              	db 07bh,022h,070h,022h,03ah,022h,00h
  91  0004              @crom	.section 'crom'
  91  0004              _LC1:
  91  0004              	db 071h,074h,069h,068h,06fh,063h,070h,079h,030h,06ah
  91  0009              	db 062h,038h,061h,074h,06fh,076h,00h
  91  000C              @crom	.section 'crom'
  91  000C              _LC2:
  91  000C              	db 022h,02ch,022h,076h,022h,03ah,022h,00h
  91  0010              @crom	.section 'crom'
  91  0010              _LC3:
  91  0010              	db 031h,02eh,030h,02eh,030h,00h
  91  0013              @crom	.section 'crom'
  91  0013              _LC4:
  91  0013              	db 022h,02ch,022h,06dh,022h,03ah,00h
  91  0017              @crom	.section 'crom'
  91  0017              _LC5:
  91  0017              	db 032h,00h
  91  0018              @crom	.section 'crom'
  91  0018              _LC6:
  91  0018              	db 07dh,00h
  91  0019              public _data_handle
  91  0019              #pragma debug scope 10 1
 393  0019              #line 393 "E:\Project\17.HT66F4560_EVM_V1.0\CODE\HT66F4560_TuYa_FishTank_V1.0\mcu_sdk\system.c"
 393  0000              _data_handle .section 'code'
 393  0000              _data_handle proc
 393  0000              public _data_handle_2
 393  0000  0012[           local _data_handle_2 db 18 dup(?)	; 2,16
            00
            ]
 393  0012              #pragma debug variable 10 10 _data_handle_2+0 "offset"
 393  0012              #pragma debug variable 10 10 _data_handle_2+4 "i"
 393  0012              #pragma debug variable 8 10 _data_handle_2+2 "cmd_type"
 407  0012              #line 407 "E:\Project\17.HT66F4560_EVM_V1.0\CODE\HT66F4560_TuYa_FishTank_V1.0\mcu_sdk\system.c"
 407  0000  0F00     R  	mov a,low (offset _wifi_data_process_buf+3)
 407  0001  0300     R  	add a,_data_handle_2[0]
 407  0002  0083        	mov mp,a
 407  0003  0F00     R  	mov a,high (offset _wifi_data_process_buf+3)
 407  0004  1300     R  	adc a,_data_handle_2[1]
 407  0005  0084        	mov sbp,a
 407  0006              	fcall _Crom2Prom
"File: system.c      Assembler  Version HGASM0202      Page 7

 407  000D  0080     R  	mov _data_handle_2[2],a
 425  000E              #line 425 "E:\Project\17.HT66F4560_EVM_V1.0\CODE\HT66F4560_TuYa_FishTank_V1.0\mcu_sdk\system.c"
 425  000E  0700     R  	mov a,_data_handle_2[2]
 425  000F  0A00        	sub a,0
 425  0010  3D0A        	sz z
 425  0011  2800     R  	jmp _L20
 425  0012  0A01        	sub a,(1)-(0)
 425  0013  3D0A        	sz z
 425  0014  2800     R  	jmp _L21
 425  0015              #line 425 "E:\Project\17.HT66F4560_EVM_V1.0\CODE\HT66F4560_TuYa_FishTank_V1.0\mcu_sdk\system.c"
 425  0015  0700     R  	mov a,_data_handle_2[2]
 425  0016  0A02        	sub a,2
 425  0017  3D0A        	sz z
 425  0018  2800     R  	jmp _L22
 425  0019  0A01        	sub a,(3)-(2)
 425  001A  3D0A        	sz z
 425  001B  2800     R  	jmp _L23
 425  001C  0700     R  	mov a,_data_handle_2[2]
 425  001D  0A04        	sub a,4
 425  001E  3D0A        	sz z
 425  001F  2800     R  	jmp _L24
 425  0020  0A01        	sub a,(5)-(4)
 425  0021  3D0A        	sz z
 425  0022  2800     R  	jmp _L25
 425  0023  0700     R  	mov a,_data_handle_2[2]
 425  0024  0A06        	sub a,6
 425  0025  3D0A        	sz z
 425  0026  2800     R  	jmp _L26
 425  0027  0A02        	sub a,(8)-(6)
 425  0028  3D0A        	sz z
 425  0029  2800     R  	jmp _L27
 425  002A  0700     R  	mov a,_data_handle_2[2]
 425  002B  0A0E        	sub a,14
 425  002C  3D0A        	sz z
 425  002D  2800     R  	jmp _L28
 425  002E  0A0E        	sub a,(28)-(14)
 425  002F  3D0A        	sz z
 425  0030  2800     R  	jmp _L29
 425  0031  0700     R  	mov a,_data_handle_2[2]
 425  0032  0A2B        	sub a,43
 425  0033  3D0A        	sz z
 425  0034  2800     R  	jmp _L30
 425  0035  0700     R  	mov a,_data_handle_2[2]
 425  0036  0A34        	sub a,52
 425  0037  390A        	snz z
 425  0038  2800     R  	jmp _L18
 685  0039              #line 685 "E:\Project\17.HT66F4560_EVM_V1.0\CODE\HT66F4560_TuYa_FishTank_V1.0\mcu_sdk\system.c"
 685  0039  0F00     R  	mov a,low (offset _wifi_data_process_buf+4)
 685  003A  0300     R  	add a,_data_handle_2[0]
 685  003B  0083        	mov mp,a
 685  003C  0F00     R  	mov a,high (offset _wifi_data_process_buf+4)
 685  003D  1300     R  	adc a,_data_handle_2[1]
 685  003E  0084        	mov sbp,a
 685  003F              	fcall _Crom2Prom
 685  0046  0080     E  	mov rd,a
 685  0047  0F00     R  	mov a,low (offset _wifi_data_process_buf+5)
 685  0048  0300     R  	add a,_data_handle_2[0]
 685  0049  0083        	mov mp,a
 685  004A  0F00     R  	mov a,high (offset _wifi_data_process_buf+5)
 685  004B  1300     R  	adc a,_data_handle_2[1]
"File: system.c      Assembler  Version HGASM0202      Page 8

 685  004C  0084        	mov sbp,a
 685  004D              	fcall _Crom2Prom
 685  0054  0080     E  	mov ra,a
 685  0055  0700     E  	mov a,rd
 685  0056  0080     E  	mov rc,a
 685  0057  1F00     E  	clr rb
 686  0058              #line 686 "E:\Project\17.HT66F4560_EVM_V1.0\CODE\HT66F4560_TuYa_FishTank_V1.0\mcu_sdk\system.c"
 686  0058  0700     E  	mov a,rc
 686  0059  0080     E  	mov _open_module_time_serve_result_2[3],a
 686  005A  0700     E  	mov a,ra
 686  005B  0500     E  	or a,rb
 686  005C  0080     E  	mov _open_module_time_serve_result_2[2],a
 686  005D  0F00     R  	mov a,low (offset _wifi_data_process_buf+6)
 686  005E  0300     R  	add a,_data_handle_2[0]
 686  005F  0080     E  	mov _open_module_time_serve_result_2[0],a
 686  0060  0F00     R  	mov a,high (offset _wifi_data_process_buf+6)
 686  0061  1300     R  	adc a,_data_handle_2[1]
 686  0062  0080     E  	mov _open_module_time_serve_result_2[1],a
 686  0063              	fcall _open_module_time_serve_result
 687  006A              #line 687 "E:\Project\17.HT66F4560_EVM_V1.0\CODE\HT66F4560_TuYa_FishTank_V1.0\mcu_sdk\system.c"
 687  006A  2800     R  	jmp _L18
 687  006B              _L20:
 687  006B              #pragma debug scope 11 10
 687  006B              ;begin block, line: 687.-1
 687  006B              #pragma debug scope 12 11
 687  006B              ;begin block, line: 687.-1
 132  006B              #line 132 "E:\Project\17.HT66F4560_EVM_V1.0\CODE\HT66F4560_TuYa_FishTank_V1.0\mcu_sdk\system.c"
 132  006B  1080     R  	sz ___mcu_reset_state_1119[0]
 132  006C  2800     R  	jmp _L32
 133  006D              #line 133 "E:\Project\17.HT66F4560_EVM_V1.0\CODE\HT66F4560_TuYa_FishTank_V1.0\mcu_sdk\system.c"
 133  006D  1F00     R  	clr _set_wifi_uart_byte_2[2]
 133  006E  1F00     R  	clr _set_wifi_uart_byte_2[0]
 133  006F  1F00     R  	clr _set_wifi_uart_byte_2[1]
 133  0070              	fcall _set_wifi_uart_byte
 134  0077              #line 134 "E:\Project\17.HT66F4560_EVM_V1.0\CODE\HT66F4560_TuYa_FishTank_V1.0\mcu_sdk\system.c"
 134  0077  0F01        	mov a,1
 134  0078  0080     R  	mov ___mcu_reset_state_1119[0],a
 134  0079  2800     R  	jmp _L33
 134  007A              _L32:
 136  007A              #line 136 "E:\Project\17.HT66F4560_EVM_V1.0\CODE\HT66F4560_TuYa_FishTank_V1.0\mcu_sdk\system.c"
 136  007A  0F01        	mov a,1
 136  007B  0080     R  	mov _set_wifi_uart_byte_2[2],a
 136  007C  1F00     R  	clr _set_wifi_uart_byte_2[0]
 136  007D  1F00     R  	clr _set_wifi_uart_byte_2[1]
 136  007E              	fcall _set_wifi_uart_byte
 136  0085              _L33:
 139  0085              #line 139 "E:\Project\17.HT66F4560_EVM_V1.0\CODE\HT66F4560_TuYa_FishTank_V1.0\mcu_sdk\system.c"
 139  0085  0700     E  	mov a,ra
 139  0086  0080     R  	mov _wifi_uart_write_frame_2[1],a
 139  0087  1F00     R  	clr _wifi_uart_write_frame_2[2]
 139  0088  0F03        	mov a,3
 139  0089  0080     R  	mov _wifi_uart_write_frame_2[0],a
 139  008A  0F00        	mov a,0
 139  008B  2800     R  	jmp _L43
 139  008C              _L21:
 139  008C              #pragma debug scope 11 10
 139  008C              #pragma debug scope 10 1
 139  008C              #pragma debug scope 13 10
 139  008C              ;begin block, line: 139.-1
 139  008C              #pragma debug scope 14 13
"File: system.c      Assembler  Version HGASM0202      Page 9

 139  008C              ;begin block, line: 139.-1
 153  008C              #line 153 "E:\Project\17.HT66F4560_EVM_V1.0\CODE\HT66F4560_TuYa_FishTank_V1.0\mcu_sdk\system.c"
 153  008C  0F00     R  	mov a,low offset _LC0
 153  008D  0080     E  	mov _my_strlen_2[0],a
 153  008E  0F00     R  	mov a,high offset _LC0
 153  008F  0080     E  	mov _my_strlen_2[1],a
 153  0090              	fcall _my_strlen
 153  0097  0700     E  	mov a,ra
 153  0098  0080     R  	mov _set_wifi_uart_buffer_2[4],a
 153  0099  0700     E  	mov a,rb
 153  009A  0080     R  	mov _set_wifi_uart_buffer_2[5],a
 153  009B  0F00     R  	mov a,low offset _LC0
 153  009C  0080     R  	mov _set_wifi_uart_buffer_2[2],a
 153  009D  0F00     R  	mov a,high offset _LC0
 153  009E  0080     R  	mov _set_wifi_uart_buffer_2[3],a
 153  009F  1F00     R  	clr _set_wifi_uart_buffer_2[0]
 153  00A0  1F00     R  	clr _set_wifi_uart_buffer_2[1]
 153  00A1              	fcall _set_wifi_uart_buffer
 153  00A8  0700     E  	mov a,ra
 153  00A9  0080     R  	mov _data_handle_2[2],a
 154  00AA              #line 154 "E:\Project\17.HT66F4560_EVM_V1.0\CODE\HT66F4560_TuYa_FishTank_V1.0\mcu_sdk\system.c"
 154  00AA  0F00     R  	mov a,low offset _LC1
 154  00AB  0080     E  	mov _my_strlen_2[0],a
 154  00AC  0F00     R  	mov a,high offset _LC1
 154  00AD  0080     E  	mov _my_strlen_2[1],a
 154  00AE              	fcall _my_strlen
 154  00B5  0700     E  	mov a,ra
 154  00B6  0080     R  	mov _set_wifi_uart_buffer_2[4],a
 154  00B7  0700     E  	mov a,rb
 154  00B8  0080     R  	mov _set_wifi_uart_buffer_2[5],a
 154  00B9  0F00     R  	mov a,low offset _LC1
 154  00BA  0080     R  	mov _set_wifi_uart_buffer_2[2],a
 154  00BB  0F00     R  	mov a,high offset _LC1
 154  00BC  0080     R  	mov _set_wifi_uart_buffer_2[3],a
 154  00BD  0700     R  	mov a,_data_handle_2[2]
 154  00BE  0080     R  	mov _set_wifi_uart_buffer_2[0],a
 154  00BF  1F00     R  	clr _set_wifi_uart_buffer_2[1]
 154  00C0              	fcall _set_wifi_uart_buffer
 154  00C7  0700     E  	mov a,ra
 154  00C8  0080     R  	mov _data_handle_2[2],a
 155  00C9              #line 155 "E:\Project\17.HT66F4560_EVM_V1.0\CODE\HT66F4560_TuYa_FishTank_V1.0\mcu_sdk\system.c"
 155  00C9  0F00     R  	mov a,low offset _LC2
 155  00CA  0080     E  	mov _my_strlen_2[0],a
 155  00CB  0F00     R  	mov a,high offset _LC2
 155  00CC  0080     E  	mov _my_strlen_2[1],a
 155  00CD              	fcall _my_strlen
 155  00D4  0700     E  	mov a,ra
 155  00D5  0080     R  	mov _set_wifi_uart_buffer_2[4],a
 155  00D6  0700     E  	mov a,rb
 155  00D7  0080     R  	mov _set_wifi_uart_buffer_2[5],a
 155  00D8  0F00     R  	mov a,low offset _LC2
 155  00D9  0080     R  	mov _set_wifi_uart_buffer_2[2],a
 155  00DA  0F00     R  	mov a,high offset _LC2
 155  00DB  0080     R  	mov _set_wifi_uart_buffer_2[3],a
 155  00DC  0700     R  	mov a,_data_handle_2[2]
 155  00DD  0080     R  	mov _set_wifi_uart_buffer_2[0],a
 155  00DE  1F00     R  	clr _set_wifi_uart_buffer_2[1]
 155  00DF              	fcall _set_wifi_uart_buffer
 155  00E6  0700     E  	mov a,ra
 155  00E7  0080     R  	mov _data_handle_2[2],a
"File: system.c      Assembler  Version HGASM0202      Page 10

 156  00E8              #line 156 "E:\Project\17.HT66F4560_EVM_V1.0\CODE\HT66F4560_TuYa_FishTank_V1.0\mcu_sdk\system.c"
 156  00E8  0F00     R  	mov a,low offset _LC3
 156  00E9  0080     E  	mov _my_strlen_2[0],a
 156  00EA  0F00     R  	mov a,high offset _LC3
 156  00EB  0080     E  	mov _my_strlen_2[1],a
 156  00EC              	fcall _my_strlen
 156  00F3  0700     E  	mov a,ra
 156  00F4  0080     R  	mov _set_wifi_uart_buffer_2[4],a
 156  00F5  0700     E  	mov a,rb
 156  00F6  0080     R  	mov _set_wifi_uart_buffer_2[5],a
 156  00F7  0F00     R  	mov a,low offset _LC3
 156  00F8  0080     R  	mov _set_wifi_uart_buffer_2[2],a
 156  00F9  0F00     R  	mov a,high offset _LC3
 156  00FA  0080     R  	mov _set_wifi_uart_buffer_2[3],a
 156  00FB  0700     R  	mov a,_data_handle_2[2]
 156  00FC  0080     R  	mov _set_wifi_uart_buffer_2[0],a
 156  00FD  1F00     R  	clr _set_wifi_uart_buffer_2[1]
 156  00FE              	fcall _set_wifi_uart_buffer
 156  0105  0700     E  	mov a,ra
 156  0106  0080     R  	mov _data_handle_2[2],a
 157  0107              #line 157 "E:\Project\17.HT66F4560_EVM_V1.0\CODE\HT66F4560_TuYa_FishTank_V1.0\mcu_sdk\system.c"
 157  0107  0F00     R  	mov a,low offset _LC4
 157  0108  0080     E  	mov _my_strlen_2[0],a
 157  0109  0F00     R  	mov a,high offset _LC4
 157  010A  0080     E  	mov _my_strlen_2[1],a
 157  010B              	fcall _my_strlen
 157  0112  0700     E  	mov a,ra
 157  0113  0080     R  	mov _set_wifi_uart_buffer_2[4],a
 157  0114  0700     E  	mov a,rb
 157  0115  0080     R  	mov _set_wifi_uart_buffer_2[5],a
 157  0116  0F00     R  	mov a,low offset _LC4
 157  0117  0080     R  	mov _set_wifi_uart_buffer_2[2],a
 157  0118  0F00     R  	mov a,high offset _LC4
 157  0119  0080     R  	mov _set_wifi_uart_buffer_2[3],a
 157  011A  0700     R  	mov a,_data_handle_2[2]
 157  011B  0080     R  	mov _set_wifi_uart_buffer_2[0],a
 157  011C  1F00     R  	clr _set_wifi_uart_buffer_2[1]
 157  011D              	fcall _set_wifi_uart_buffer
 157  0124  0700     E  	mov a,ra
 157  0125  0080     R  	mov _data_handle_2[2],a
 158  0126              #line 158 "E:\Project\17.HT66F4560_EVM_V1.0\CODE\HT66F4560_TuYa_FishTank_V1.0\mcu_sdk\system.c"
 158  0126  0F00     R  	mov a,low offset _LC5
 158  0127  0080     E  	mov _my_strlen_2[0],a
 158  0128  0F00     R  	mov a,high offset _LC5
 158  0129  0080     E  	mov _my_strlen_2[1],a
 158  012A              	fcall _my_strlen
 158  0131  0700     E  	mov a,ra
 158  0132  0080     R  	mov _set_wifi_uart_buffer_2[4],a
 158  0133  0700     E  	mov a,rb
 158  0134  0080     R  	mov _set_wifi_uart_buffer_2[5],a
 158  0135  0F00     R  	mov a,low offset _LC5
 158  0136  0080     R  	mov _set_wifi_uart_buffer_2[2],a
 158  0137  0F00     R  	mov a,high offset _LC5
 158  0138  0080     R  	mov _set_wifi_uart_buffer_2[3],a
 158  0139  0700     R  	mov a,_data_handle_2[2]
 158  013A  0080     R  	mov _set_wifi_uart_buffer_2[0],a
 158  013B  1F00     R  	clr _set_wifi_uart_buffer_2[1]
 158  013C              	fcall _set_wifi_uart_buffer
 158  0143  0700     E  	mov a,ra
 158  0144  0080     R  	mov _data_handle_2[2],a
"File: system.c      Assembler  Version HGASM0202      Page 11

 176  0145              #line 176 "E:\Project\17.HT66F4560_EVM_V1.0\CODE\HT66F4560_TuYa_FishTank_V1.0\mcu_sdk\system.c"
 176  0145  0F00     R  	mov a,low offset _LC6
 176  0146  0080     E  	mov _my_strlen_2[0],a
 176  0147  0F00     R  	mov a,high offset _LC6
 176  0148  0080     E  	mov _my_strlen_2[1],a
 176  0149              	fcall _my_strlen
 176  0150  0700     E  	mov a,ra
 176  0151  0080     R  	mov _set_wifi_uart_buffer_2[4],a
 176  0152  0700     E  	mov a,rb
 176  0153  0080     R  	mov _set_wifi_uart_buffer_2[5],a
 176  0154  0F00     R  	mov a,low offset _LC6
 176  0155  0080     R  	mov _set_wifi_uart_buffer_2[2],a
 176  0156  0F00     R  	mov a,high offset _LC6
 176  0157  0080     R  	mov _set_wifi_uart_buffer_2[3],a
 176  0158  0700     R  	mov a,_data_handle_2[2]
 176  0159  0080     R  	mov _set_wifi_uart_buffer_2[0],a
 176  015A  1F00     R  	clr _set_wifi_uart_buffer_2[1]
 176  015B              	fcall _set_wifi_uart_buffer
 178  0162              #line 178 "E:\Project\17.HT66F4560_EVM_V1.0\CODE\HT66F4560_TuYa_FishTank_V1.0\mcu_sdk\system.c"
 178  0162  0700     E  	mov a,ra
 178  0163  0080     R  	mov _wifi_uart_write_frame_2[1],a
 178  0164  1F00     R  	clr _wifi_uart_write_frame_2[2]
 178  0165  0F03        	mov a,3
 178  0166  0080     R  	mov _wifi_uart_write_frame_2[0],a
 178  0167  0F01        	mov a,1
 178  0168              _L43:
 178  0168              	fcall _wifi_uart_write_frame
 178  016F  2800     R  	jmp _L18
 178  0170              _L22:
 178  0170              #pragma debug scope 13 10
 178  0170              #pragma debug scope 10 1
 178  0170              #pragma debug scope 15 10
 178  0170              ;begin block, line: 178.-1
 178  0170              #pragma debug scope 16 15
 178  0170              ;begin block, line: 178.-1
 197  0170              #line 197 "E:\Project\17.HT66F4560_EVM_V1.0\CODE\HT66F4560_TuYa_FishTank_V1.0\mcu_sdk\system.c"
 197  0170  1F00     R  	clr _wifi_uart_write_frame_2[1]
 197  0171  1F00     R  	clr _wifi_uart_write_frame_2[2]
 197  0172  0F03        	mov a,3
 197  0173  0080     R  	mov _wifi_uart_write_frame_2[0],a
 197  0174  0F02        	mov a,2
 197  0175  2800     R  	jmp _L43
 197  0176              _L23:
 197  0176              #pragma debug scope 15 10
 197  0176              #pragma debug scope 10 1
 441  0176              #line 441 "E:\Project\17.HT66F4560_EVM_V1.0\CODE\HT66F4560_TuYa_FishTank_V1.0\mcu_sdk\system.c"
 441  0176  0F00     R  	mov a,low (offset _wifi_data_process_buf+6)
 441  0177  0300     R  	add a,_data_handle_2[0]
 441  0178  0083        	mov mp,a
 441  0179  0F00     R  	mov a,high (offset _wifi_data_process_buf+6)
 441  017A  1300     R  	adc a,_data_handle_2[1]
 441  017B  0084        	mov sbp,a
 441  017C              	fcall _Crom2Prom
 441  0183  0080     R  	mov _wifi_work_state[0],a
 442  0184              #line 442 "E:\Project\17.HT66F4560_EVM_V1.0\CODE\HT66F4560_TuYa_FishTank_V1.0\mcu_sdk\system.c"
 442  0184  1F00     R  	clr _wifi_uart_write_frame_2[1]
 442  0185  1F00     R  	clr _wifi_uart_write_frame_2[2]
 442  0186  0F03        	mov a,3
 442  0187  0080     R  	mov _wifi_uart_write_frame_2[0],a
 442  0188  0F03        	mov a,3
"File: system.c      Assembler  Version HGASM0202      Page 12

 442  0189  2800     R  	jmp _L43
 442  018A              _L24:
 452  018A              #line 452 "E:\Project\17.HT66F4560_EVM_V1.0\CODE\HT66F4560_TuYa_FishTank_V1.0\mcu_sdk\system.c"
 452  018A  0F01        	mov a,1
 452  018B  0080     R  	mov _reset_wifi_flag[0],a
 453  018C              #line 453 "E:\Project\17.HT66F4560_EVM_V1.0\CODE\HT66F4560_TuYa_FishTank_V1.0\mcu_sdk\system.c"
 453  018C  2800     R  	jmp _L18
 453  018D              _L25:
 456  018D              #line 456 "E:\Project\17.HT66F4560_EVM_V1.0\CODE\HT66F4560_TuYa_FishTank_V1.0\mcu_sdk\system.c"
 456  018D  0F01        	mov a,1
 456  018E  0080     R  	mov _set_wifimode_flag[0],a
 457  018F              #line 457 "E:\Project\17.HT66F4560_EVM_V1.0\CODE\HT66F4560_TuYa_FishTank_V1.0\mcu_sdk\system.c"
 457  018F  2800     R  	jmp _L18
 457  0190              _L26:
 461  0190              #line 461 "E:\Project\17.HT66F4560_EVM_V1.0\CODE\HT66F4560_TuYa_FishTank_V1.0\mcu_sdk\system.c"
 461  0190  0F00     R  	mov a,low (offset _wifi_data_process_buf+4)
 461  0191  0300     R  	add a,_data_handle_2[0]
 461  0192  0083        	mov mp,a
 461  0193  0F00     R  	mov a,high (offset _wifi_data_process_buf+4)
 461  0194  1300     R  	adc a,_data_handle_2[1]
 461  0195  0084        	mov sbp,a
 461  0196              	fcall _Crom2Prom
 461  019D  0080     E  	mov rd,a
 461  019E  0F00     R  	mov a,low (offset _wifi_data_process_buf+5)
 461  019F  0300     R  	add a,_data_handle_2[0]
 461  01A0  0083        	mov mp,a
 461  01A1  0F00     R  	mov a,high (offset _wifi_data_process_buf+5)
 461  01A2  1300     R  	adc a,_data_handle_2[1]
 461  01A3  0084        	mov sbp,a
 461  01A4              	fcall _Crom2Prom
 461  01AB  0080     E  	mov ra,a
 461  01AC  0700     E  	mov a,rd
 461  01AD  0080     E  	mov rc,a
 461  01AE  1F00     E  	clr rb
 461  01AF  0700     E  	mov a,rc
 461  01B0  0080     R  	mov _data_handle_2[12],a
 461  01B1  0700     E  	mov a,ra
 461  01B2  0500     E  	or a,rb
 461  01B3  0080     R  	mov _data_handle_2[11],a
 463  01B4              #line 463 "E:\Project\17.HT66F4560_EVM_V1.0\CODE\HT66F4560_TuYa_FishTank_V1.0\mcu_sdk\system.c"
 463  01B4  1F00     R  	clr _data_handle_2[4]
 463  01B5  1F00     R  	clr _data_handle_2[5]
 463  01B6              _L34:
 463  01B6  0700     R  	mov a,_data_handle_2[4]
 463  01B7  0200     R  	sub a,_data_handle_2[11]
 463  01B8  0700     R  	mov a,_data_handle_2[5]
 463  01B9  1200     R  	sbc a,_data_handle_2[12]
 463  01BA  3C0A        	sz c
 463  01BB  2800     R  	jmp _L18
 464  01BC              #line 464 "E:\Project\17.HT66F4560_EVM_V1.0\CODE\HT66F4560_TuYa_FishTank_V1.0\mcu_sdk\system.c"
 464  01BC  0700     R  	mov a,_data_handle_2[0]
 464  01BD  0300     R  	add a,_data_handle_2[4]
 464  01BE  0080     E  	mov rb,a
 464  01BF  0700     R  	mov a,_data_handle_2[1]
 464  01C0  1300     R  	adc a,_data_handle_2[5]
 464  01C1  0080     E  	mov rc,a
 464  01C2  0F00     R  	mov a,low (offset _wifi_data_process_buf+8)
 464  01C3  0300     E  	add a,rb
 464  01C4  0083        	mov mp,a
 464  01C5  0F00     R  	mov a,high (offset _wifi_data_process_buf+8)
"File: system.c      Assembler  Version HGASM0202      Page 13

 464  01C6  1300     E  	adc a,rc
 464  01C7  0084        	mov sbp,a
 464  01C8              	fcall _Crom2Prom
 464  01CF  0080     R  	mov _data_handle_2[7],a
 464  01D0  1F00     R  	clr _data_handle_2[6]
 465  01D1              #line 465 "E:\Project\17.HT66F4560_EVM_V1.0\CODE\HT66F4560_TuYa_FishTank_V1.0\mcu_sdk\system.c"
 465  01D1  0F00     R  	mov a,low (offset _wifi_data_process_buf+9)
 465  01D2  0300     E  	add a,rb
 465  01D3  0083        	mov mp,a
 465  01D4  0F00     R  	mov a,high (offset _wifi_data_process_buf+9)
 465  01D5  1300     E  	adc a,rc
 465  01D6  0084        	mov sbp,a
 465  01D7              	fcall _Crom2Prom
 465  01DE  0080     E  	mov ra,a
 465  01DF  0700     E  	mov a,ra
 465  01E0  0080     R  	mov _data_handle_2[13],a
 465  01E1  1F00     R  	clr _data_handle_2[14]
 467  01E2              #line 467 "E:\Project\17.HT66F4560_EVM_V1.0\CODE\HT66F4560_TuYa_FishTank_V1.0\mcu_sdk\system.c"
 467  01E2  0F00     R  	mov a,low (offset _wifi_data_process_buf+6)
 467  01E3  0300     E  	add a,rb
 467  01E4  0080     R  	mov _data_handle_2[2],a
 467  01E5  0F00     R  	mov a,high (offset _wifi_data_process_buf+6)
 467  01E6  1300     E  	adc a,rc
 467  01E7  0080     R  	mov _data_handle_2[3],a
 467  01E8              #pragma debug scope 17 10
 467  01E8              ;begin block, line: 467.-1
 467  01E8              #pragma debug scope 18 17
 467  01E8              ;begin block, line: 467.-1
 467  01E8              #pragma debug variable 8 18 _data_handle_2+8 "dp_id"
 467  01E8              #pragma debug variable 8 18 _data_handle_2+15 "dp_type"
 231  01E8              #line 231 "E:\Project\17.HT66F4560_EVM_V1.0\CODE\HT66F4560_TuYa_FishTank_V1.0\mcu_sdk\system.c"
 231  01E8  0700     R  	mov a,_data_handle_2[2]
 231  01E9  0083        	mov mp,a
 231  01EA  0700     R  	mov a,_data_handle_2[3]
 231  01EB  0084        	mov sbp,a
 231  01EC              	fcall _Crom2Prom
 231  01F3  0080     R  	mov _data_handle_2[8],a
 232  01F4              #line 232 "E:\Project\17.HT66F4560_EVM_V1.0\CODE\HT66F4560_TuYa_FishTank_V1.0\mcu_sdk\system.c"
 232  01F4  0F01        	mov a,1
 232  01F5  0300     R  	add a,_data_handle_2[2]
 232  01F6  0083        	mov mp,a
 232  01F7  0F00        	mov a,0
 232  01F8  1300     R  	adc a,_data_handle_2[3]
 232  01F9  0084        	mov sbp,a
 232  01FA              	fcall _Crom2Prom
 232  0201  0080     R  	mov _data_handle_2[15],a
 233  0202              #line 233 "E:\Project\17.HT66F4560_EVM_V1.0\CODE\HT66F4560_TuYa_FishTank_V1.0\mcu_sdk\system.c"
 233  0202  0F02        	mov a,2
 233  0203  0300     R  	add a,_data_handle_2[2]
 233  0204  0083        	mov mp,a
 233  0205  0F00        	mov a,0
 233  0206  1300     R  	adc a,_data_handle_2[3]
 233  0207  0084        	mov sbp,a
 233  0208              	fcall _Crom2Prom
 233  020F  0080     R  	mov _data_handle_2[16],a
 234  0210              #line 234 "E:\Project\17.HT66F4560_EVM_V1.0\CODE\HT66F4560_TuYa_FishTank_V1.0\mcu_sdk\system.c"
 234  0210  0F03        	mov a,3
 234  0211  0300     R  	add a,_data_handle_2[2]
 234  0212  0083        	mov mp,a
 234  0213  0F00        	mov a,0
"File: system.c      Assembler  Version HGASM0202      Page 14

 234  0214  1300     R  	adc a,_data_handle_2[3]
 234  0215  0084        	mov sbp,a
 234  0216              	fcall _Crom2Prom
 234  021D  0080     R  	mov _data_handle_2[17],a
 234  021E              #pragma debug scope 19 18
 234  021E              ;begin block, line: 234.-1
 234  021E              #pragma debug scope 20 19
 234  021E              ;begin block, line: 234.-1
 208  021E              #line 208 "E:\Project\17.HT66F4560_EVM_V1.0\CODE\HT66F4560_TuYa_FishTank_V1.0\mcu_sdk\system.c"
 208  021E              	fcall _get_download_cmd_total
 208  0225  0080     E  	mov ra,a
 210  0226              #line 210 "E:\Project\17.HT66F4560_EVM_V1.0\CODE\HT66F4560_TuYa_FishTank_V1.0\mcu_sdk\system.c"
 210  0226  1F00     E  	clr rb
 210  0227              _L35:
 210  0227  0700     E  	mov a,rb
 210  0228  0200     E  	sub a,ra
 210  0229  3C0A        	sz c
 210  022A  2800     R  	jmp _L40
 211  022B              #line 211 "E:\Project\17.HT66F4560_EVM_V1.0\CODE\HT66F4560_TuYa_FishTank_V1.0\mcu_sdk\system.c"
 211  022B  0700     E  	mov a,rb
 211  022C  0080     E  	mov rd,a
 211  022D  1F00     E  	clr re
 211  022E  340A        	clr c
 211  022F  1A80     E  	rlc rd
 211  0230  1A80     E  	rlc re
 211  0231  0F00     E  	mov a,low offset _download_cmd
 211  0232  0300     E  	add a,rd
 211  0233  0083        	mov mp,a
 211  0234  0F00     E  	mov a,high offset _download_cmd
 211  0235  1300     E  	adc a,re
 211  0236  0084        	mov sbp,a
 211  0237              	fcall _Crom2Prom
 211  023E  0080     E  	mov rc,a
 211  023F  0700     E  	mov a,rc
 211  0240  0200     R  	sub a,_data_handle_2[8]
 211  0241  390A        	snz z
 211  0242  2800     R  	jmp _L36
 211  0243              _L40:
 211  0243              #pragma debug scope 19 18
 211  0243              #pragma debug scope 18 17
 238  0243              #line 238 "E:\Project\17.HT66F4560_EVM_V1.0\CODE\HT66F4560_TuYa_FishTank_V1.0\mcu_sdk\system.c"
 238  0243  1F00     E  	clr rc
 238  0244  340A        	clr c
 238  0245  1A80     E  	rlc rb
 238  0246  1A80     E  	rlc rc
 238  0247  0F00     E  	mov a,low (offset _download_cmd+1)
 238  0248  0300     E  	add a,rb
 238  0249  0083        	mov mp,a
 238  024A  0F00     E  	mov a,high (offset _download_cmd+1)
 238  024B  1300     E  	adc a,rc
 238  024C  0084        	mov sbp,a
 238  024D              	fcall _Crom2Prom
 238  0254  0080     E  	mov ra,a
 238  0255  0700     R  	mov a,_data_handle_2[15]
 238  0256  0200     E  	sub a,ra
 238  0257  390A        	snz z
 238  0258  2800     R  	jmp _L37
 233  0259              #line 233 "E:\Project\17.HT66F4560_EVM_V1.0\CODE\HT66F4560_TuYa_FishTank_V1.0\mcu_sdk\system.c"
 233  0259  0700     R  	mov a,_data_handle_2[16]
 233  025A  0080     R  	mov _data_handle_2[10],a
"File: system.c      Assembler  Version HGASM0202      Page 15

 233  025B  1F00     R  	clr _data_handle_2[9]
 242  025C              #line 242 "E:\Project\17.HT66F4560_EVM_V1.0\CODE\HT66F4560_TuYa_FishTank_V1.0\mcu_sdk\system.c"
 242  025C  0700     R  	mov a,_data_handle_2[17]
 242  025D  0300     R  	add a,_data_handle_2[9]
 242  025E  0080     E  	mov _dp_download_handle_2[2],a
 242  025F  1F05        	clr acc
 242  0260  1300     R  	adc a,_data_handle_2[10]
 242  0261  0080     E  	mov _dp_download_handle_2[3],a
 242  0262  0F04        	mov a,4
 242  0263  0300     R  	add a,_data_handle_2[2]
 242  0264  0080     E  	mov _dp_download_handle_2[0],a
 242  0265  0F00        	mov a,0
 242  0266  1300     R  	adc a,_data_handle_2[3]
 242  0267  0080     E  	mov _dp_download_handle_2[1],a
 242  0268  0700     R  	mov a,_data_handle_2[8]
 242  0269              	fcall _dp_download_handle
 242  0270  2800     R  	jmp _L37
 242  0271              _L36:
 242  0271              #pragma debug scope 21 18
 242  0271              ;begin block, line: 242.-1
 242  0271              #pragma debug scope 22 21
 242  0271              ;begin block, line: 242.-1
 210  0271              #line 210 "E:\Project\17.HT66F4560_EVM_V1.0\CODE\HT66F4560_TuYa_FishTank_V1.0\mcu_sdk\system.c"
 210  0271  1480     E  	inc rb
 210  0272  2800     R  	jmp _L35
 210  0273              _L37:
 210  0273              #pragma debug scope 21 18
 210  0273              #pragma debug scope 18 17
 210  0273              #pragma debug scope 17 10
 210  0273              #pragma debug scope 10 1
 465  0273              #line 465 "E:\Project\17.HT66F4560_EVM_V1.0\CODE\HT66F4560_TuYa_FishTank_V1.0\mcu_sdk\system.c"
 465  0273  0F04        	mov a,4
 465  0274  0300     R  	add a,_data_handle_2[4]
 465  0275  0080     E  	mov rb,a
 465  0276  0F00        	mov a,0
 465  0277  1300     R  	adc a,_data_handle_2[5]
 465  0278  0080     E  	mov rc,a
 475  0279              #line 475 "E:\Project\17.HT66F4560_EVM_V1.0\CODE\HT66F4560_TuYa_FishTank_V1.0\mcu_sdk\system.c"
 475  0279  0700     R  	mov a,_data_handle_2[13]
 475  027A  0380     E  	addm a,rb
 475  027B  0700     R  	mov a,_data_handle_2[14]
 475  027C  1380     E  	adcm a,rc
 475  027D  0700     R  	mov a,_data_handle_2[6]
 475  027E  0300     E  	add a,rb
 475  027F  0080     R  	mov _data_handle_2[4],a
 475  0280  0700     R  	mov a,_data_handle_2[7]
 475  0281  1300     E  	adc a,rc
 475  0282  0080     R  	mov _data_handle_2[5],a
 475  0283  2800     R  	jmp _L34
 475  0284              _L27:
 480  0284              #line 480 "E:\Project\17.HT66F4560_EVM_V1.0\CODE\HT66F4560_TuYa_FishTank_V1.0\mcu_sdk\system.c"
 480  0284              	fcall _all_data_update
 481  028B              #line 481 "E:\Project\17.HT66F4560_EVM_V1.0\CODE\HT66F4560_TuYa_FishTank_V1.0\mcu_sdk\system.c"
 481  028B  2800     R  	jmp _L18
 481  028C              _L29:
 553  028C              #line 553 "E:\Project\17.HT66F4560_EVM_V1.0\CODE\HT66F4560_TuYa_FishTank_V1.0\mcu_sdk\system.c"
 553  028C  0F00     R  	mov a,low (offset _wifi_data_process_buf+6)
 553  028D  0300     R  	add a,_data_handle_2[0]
 553  028E  0080     E  	mov _mcu_write_rtctime_2[0],a
 553  028F  0F00     R  	mov a,high (offset _wifi_data_process_buf+6)
"File: system.c      Assembler  Version HGASM0202      Page 16

 553  0290  1300     R  	adc a,_data_handle_2[1]
 553  0291  0080     E  	mov _mcu_write_rtctime_2[1],a
 553  0292              	fcall _mcu_write_rtctime
 554  0299              #line 554 "E:\Project\17.HT66F4560_EVM_V1.0\CODE\HT66F4560_TuYa_FishTank_V1.0\mcu_sdk\system.c"
 554  0299  2800     R  	jmp _L18
 554  029A              _L28:
 559  029A              #line 559 "E:\Project\17.HT66F4560_EVM_V1.0\CODE\HT66F4560_TuYa_FishTank_V1.0\mcu_sdk\system.c"
 559  029A  0F00     R  	mov a,low (offset _wifi_data_process_buf+6)
 559  029B  0300     R  	add a,_data_handle_2[0]
 559  029C  0083        	mov mp,a
 559  029D  0F00     R  	mov a,high (offset _wifi_data_process_buf+6)
 559  029E  1300     R  	adc a,_data_handle_2[1]
 559  029F  0084        	mov sbp,a
 559  02A0              	fcall _Crom2Prom
 559  02A7  0080     E  	mov ra,a
 560  02A8              #line 560 "E:\Project\17.HT66F4560_EVM_V1.0\CODE\HT66F4560_TuYa_FishTank_V1.0\mcu_sdk\system.c"
 560  02A8  0F00     R  	mov a,low (offset _wifi_data_process_buf+7)
 560  02A9  0300     R  	add a,_data_handle_2[0]
 560  02AA  0083        	mov mp,a
 560  02AB  0F00     R  	mov a,high (offset _wifi_data_process_buf+7)
 560  02AC  1300     R  	adc a,_data_handle_2[1]
 560  02AD  0084        	mov sbp,a
 561  02AE              #line 561 "E:\Project\17.HT66F4560_EVM_V1.0\CODE\HT66F4560_TuYa_FishTank_V1.0\mcu_sdk\system.c"
 561  02AE              	fcall _Crom2Prom
 561  02B5  0080     E  	mov _wifi_test_result_2[0],a
 561  02B6  0700     E  	mov a,ra
 561  02B7              	fcall _wifi_test_result
 562  02BE              #line 562 "E:\Project\17.HT66F4560_EVM_V1.0\CODE\HT66F4560_TuYa_FishTank_V1.0\mcu_sdk\system.c"
 562  02BE  2800     R  	jmp _L18
 562  02BF              _L30:
 603  02BF              #line 603 "E:\Project\17.HT66F4560_EVM_V1.0\CODE\HT66F4560_TuYa_FishTank_V1.0\mcu_sdk\system.c"
 603  02BF  0F00     R  	mov a,low (offset _wifi_data_process_buf+6)
 603  02C0  0300     R  	add a,_data_handle_2[0]
 603  02C1  0083        	mov mp,a
 603  02C2  0F00     R  	mov a,high (offset _wifi_data_process_buf+6)
 603  02C3  1300     R  	adc a,_data_handle_2[1]
 603  02C4  0084        	mov sbp,a
 603  02C5              	fcall _Crom2Prom
 603  02CC  0080     E  	mov ra,a
 604  02CD              #line 604 "E:\Project\17.HT66F4560_EVM_V1.0\CODE\HT66F4560_TuYa_FishTank_V1.0\mcu_sdk\system.c"
 604  02CD  0700     E  	mov a,ra
 604  02CE              	fcall _get_wifi_status
 604  02D5              _L18:
 604  02D5  0003        	ret
 604  02D6              _data_handle endp
 604  02D6              #line 604 "E:\Project\17.HT66F4560_EVM_V1.0\CODE\HT66F4560_TuYa_FishTank_V1.0\mcu_sdk\system.c"
 604  02D6              #pragma debug scope 1 1
 604  02D6              public _with_data_rxbuff
 604  02D6              #pragma debug scope 23 1
 736  02D6              #line 736 "E:\Project\17.HT66F4560_EVM_V1.0\CODE\HT66F4560_TuYa_FishTank_V1.0\mcu_sdk\system.c"
 736  0000              _with_data_rxbuff .section 'code'
 736  0000              _with_data_rxbuff proc
 737  0000              #line 737 "E:\Project\17.HT66F4560_EVM_V1.0\CODE\HT66F4560_TuYa_FishTank_V1.0\mcu_sdk\system.c"
 737  0000  0700     R  	mov a,_rx_buf_in[0]
 737  0001  0080     E  	mov rb,a
 737  0002  0700     R  	mov a,_rx_buf_in[1]
 737  0003  0080     E  	mov rc,a
 737  0004  0700     R  	mov a,_rx_buf_out[1]
 737  0005  0480     E  	xorm a,rc
 737  0006  0700     R  	mov a,_rx_buf_out[0]
"File: system.c      Assembler  Version HGASM0202      Page 17

 737  0007  0480     E  	xorm a,rb
 737  0008  0F00        	mov a,0
 737  0009  0200     E  	sub a,rb
 737  000A  0080     E  	mov rf,a
 737  000B  0F00        	mov a,0
 737  000C  1200     E  	sbc a,rc
 737  000D  0080     E  	mov rg,a
 737  000E  0700     E  	mov a,rg
 737  000F  0580     E  	orm a,rc
 737  0010  0700     E  	mov a,rf
 737  0011  0580     E  	orm a,rb
 737  0012  1800     E  	rla rc
 737  0013  0E01        	and a,1
 737  0014  0080     E  	mov ra,a
 741  0015              #line 741 "E:\Project\17.HT66F4560_EVM_V1.0\CODE\HT66F4560_TuYa_FishTank_V1.0\mcu_sdk\system.c"
 741  0015  0700     E  	mov a,ra
 741  0016  0003        	ret
 741  0017              _with_data_rxbuff endp
 741  0017              #line 741 "E:\Project\17.HT66F4560_EVM_V1.0\CODE\HT66F4560_TuYa_FishTank_V1.0\mcu_sdk\system.c"
 741  0017              #pragma debug scope 1 1
 741  0017              public _take_byte_rxbuff
 741  0017              #pragma debug scope 24 1
 749  0017              #line 749 "E:\Project\17.HT66F4560_EVM_V1.0\CODE\HT66F4560_TuYa_FishTank_V1.0\mcu_sdk\system.c"
 749  0000              _take_byte_rxbuff .section 'code'
 749  0000              _take_byte_rxbuff proc
 752  0000              #line 752 "E:\Project\17.HT66F4560_EVM_V1.0\CODE\HT66F4560_TuYa_FishTank_V1.0\mcu_sdk\system.c"
 752  0000  0700     R  	mov a,_rx_buf_out[0]
 752  0001  0080     E  	mov rb,a
 752  0002  0700     R  	mov a,_rx_buf_out[1]
 752  0003  0080     E  	mov rc,a
 752  0004  0700     E  	mov a,rb
 752  0005  0200     R  	sub a,_rx_buf_in[0]
 752  0006  0700     E  	mov a,rc
 752  0007  1200     R  	sbc a,_rx_buf_in[1]
 752  0008  3F0A        	sz cz
 752  0009  2800     R  	jmp _L48
 754  000A              #line 754 "E:\Project\17.HT66F4560_EVM_V1.0\CODE\HT66F4560_TuYa_FishTank_V1.0\mcu_sdk\system.c"
 754  000A  0700     E  	mov a,rb
 754  000B  0A00     R  	sub a,low offset _wifi_uart_rx_buf[23]
 754  000C  0700     E  	mov a,rc
 754  000D  0800     R  	sbc a,high offset _wifi_uart_rx_buf[23]
 754  000E  380A        	snz c
 754  000F  2800     R  	jmp _L47
 756  0010              #line 756 "E:\Project\17.HT66F4560_EVM_V1.0\CODE\HT66F4560_TuYa_FishTank_V1.0\mcu_sdk\system.c"
 756  0010  0F00     R  	mov a,low offset _wifi_uart_rx_buf
 756  0011  0080     R  	mov _rx_buf_out[0],a
 756  0012  0F00     R  	mov a,high offset _wifi_uart_rx_buf
 756  0013  0080     R  	mov _rx_buf_out[1],a
 756  0014              _L47:
 759  0014              #line 759 "E:\Project\17.HT66F4560_EVM_V1.0\CODE\HT66F4560_TuYa_FishTank_V1.0\mcu_sdk\system.c"
 759  0014  0700     R  	mov a,_rx_buf_out[0]
 759  0015  0080     E  	mov rb,a
 759  0016  0700     R  	mov a,_rx_buf_out[1]
 759  0017  0080     E  	mov rc,a
 759  0018  0F01        	mov a,1
 759  0019  0300     E  	add a,rb
 759  001A  0080     R  	mov _rx_buf_out[0],a
 759  001B  0F00        	mov a,0
 759  001C  1300     E  	adc a,rc
 759  001D  0080     R  	mov _rx_buf_out[1],a
"File: system.c      Assembler  Version HGASM0202      Page 18

 759  001E  0700     E  	mov a,rb
 759  001F  0083        	mov mp,a
 759  0020  0700     E  	mov a,rc
 759  0021  0084        	mov sbp,a
 759  0022              	fcall _Crom2Prom
 759  0029  0080     E  	mov ra,a
 759  002A  2800     R  	jmp _L46
 759  002B              _L48:
 750  002B              #line 750 "E:\Project\17.HT66F4560_EVM_V1.0\CODE\HT66F4560_TuYa_FishTank_V1.0\mcu_sdk\system.c"
 750  002B  1F00     E  	clr ra
 750  002C              _L46:
 763  002C              #line 763 "E:\Project\17.HT66F4560_EVM_V1.0\CODE\HT66F4560_TuYa_FishTank_V1.0\mcu_sdk\system.c"
 763  002C  0700     E  	mov a,ra
 763  002D  0003        	ret
 763  002E              _take_byte_rxbuff endp
 763  002E              #line 763 "E:\Project\17.HT66F4560_EVM_V1.0\CODE\HT66F4560_TuYa_FishTank_V1.0\mcu_sdk\system.c"
 763  002E              #pragma debug scope 1 1
 763  0000              @HCCINIT	.section 'data'
 130  0000              #line 130 "E:\Project\17.HT66F4560_EVM_V1.0\CODE\HT66F4560_TuYa_FishTank_V1.0\mcu_sdk\system.c"
 130  0000              @HCCINIT___mcu_reset_state_1119 .section 'data'
 130  0000              ___mcu_reset_state_1119 label byte
 130  0000              #pragma debug variable 8 1 ___mcu_reset_state_1119 "__mcu_reset_state_1119"
 130  0000              	db 0
 130  0000              @ROMDATA_BASE .section inpage 'code'
 130  0000              	db 0
 130  0001              @HCCINIT___mcu_reset_state_1119 .section 'data'

 101  0001              #line 101 "E:\Project\17.HT66F4560_EVM_V1.0\CODE\HT66F4560_TuYa_FishTank_V1.0\mcu_sdk\system.h"
 101  0001              public _wifi_work_state
 101  0000              @HCCINIT0_wifi_work_state .section 'data'
 101  0000              _wifi_work_state	db 0
 101  0001              #pragma debug variable 8 1 _wifi_work_state "wifi_work_state"
 101  0001              
 101  0000              @HCCINIT .section 'data'
 100  0000              #line 100 "E:\Project\17.HT66F4560_EVM_V1.0\CODE\HT66F4560_TuYa_FishTank_V1.0\mcu_sdk\system.h"
 100  0000              public _set_wifimode_flag
 100  0000              @HCCINIT0_set_wifimode_flag .section 'data'
 100  0000              _set_wifimode_flag	db 0
 100  0001              #pragma debug variable 8 1 _set_wifimode_flag "set_wifimode_flag"
 100  0001              
 100  0000              @HCCINIT .section 'data'
  99  0000              #line 99 "E:\Project\17.HT66F4560_EVM_V1.0\CODE\HT66F4560_TuYa_FishTank_V1.0\mcu_sdk\system.h"
  99  0000              public _reset_wifi_flag
  99  0000              @HCCINIT0_reset_wifi_flag .section 'data'
  99  0000              _reset_wifi_flag	db 0
  99  0001              #pragma debug variable 8 1 _reset_wifi_flag "reset_wifi_flag"
  99  0001              
  99  0000              @HCCINIT .section 'data'
  96  0000              #line 96 "E:\Project\17.HT66F4560_EVM_V1.0\CODE\HT66F4560_TuYa_FishTank_V1.0\mcu_sdk\system.h"
  96  0000              public _stop_update_flag
  96  0000              @HCCINIT0_stop_update_flag .section 'data'
  96  0000              _stop_update_flag	db 0
  96  0001              #pragma debug variable 8 1 _stop_update_flag "stop_update_flag"
  96  0001              
  96  0000              @HCCINIT .section 'data'
  94  0000              #line 94 "E:\Project\17.HT66F4560_EVM_V1.0\CODE\HT66F4560_TuYa_FishTank_V1.0\mcu_sdk\system.h"
  94  0000              public _rx_buf_out
  94  0000              @HCCINIT0_rx_buf_out .section 'data'
  94  0000  0002[       _rx_buf_out	db 2 dup(0)
            00
"File: system.h      Assembler  Version HGASM0202      Page 19

            ]
  94  0002              #pragma debug pointer 44 8 1
  94  0002              #pragma debug pointer 44 8 1
  94  0002              #pragma debug variable 44 1 _rx_buf_out "rx_buf_out"
  94  0002              
  94  0000              @HCCINIT .section 'data'
  93  0000              #line 93 "E:\Project\17.HT66F4560_EVM_V1.0\CODE\HT66F4560_TuYa_FishTank_V1.0\mcu_sdk\system.h"
  93  0000              public _rx_buf_in
  93  0000              @HCCINIT0_rx_buf_in .section 'data'
  93  0000  0002[       _rx_buf_in	db 2 dup(0)
            00
            ]
  93  0002              #pragma debug variable 44 1 _rx_buf_in "rx_buf_in"
  93  0002              
  93  0000              @HCCINIT .section 'data'
  91  0000              #line 91 "E:\Project\17.HT66F4560_EVM_V1.0\CODE\HT66F4560_TuYa_FishTank_V1.0\mcu_sdk\system.h"
  91  0000              public _wifi_uart_tx_buf
  91  0000              @HCCINIT0_wifi_uart_tx_buf .section 'data'
  91  0000  0037[       _wifi_uart_tx_buf	db 55 dup(0)
            00
            ]
  91  0037              #pragma debug array 45 8 55 1
  91  0037              #pragma debug array 45 8 55 1
  91  0037              #pragma debug variable 45 1 _wifi_uart_tx_buf "wifi_uart_tx_buf"
  91  0037              
  91  0000              @HCCINIT .section 'data'
  90  0000              #line 90 "E:\Project\17.HT66F4560_EVM_V1.0\CODE\HT66F4560_TuYa_FishTank_V1.0\mcu_sdk\system.h"
  90  0000              public _wifi_uart_rx_buf
  90  0000              @HCCINIT0_wifi_uart_rx_buf .section 'data'
  90  0000  0017[       _wifi_uart_rx_buf	db 23 dup(0)
            00
            ]
  90  0017              #pragma debug array 46 8 23 1
  90  0017              #pragma debug array 46 8 23 1
  90  0017              #pragma debug variable 46 1 _wifi_uart_rx_buf "wifi_uart_rx_buf"
  90  0017              
  90  0000              @HCCINIT .section 'data'
  89  0000              #line 89 "E:\Project\17.HT66F4560_EVM_V1.0\CODE\HT66F4560_TuYa_FishTank_V1.0\mcu_sdk\system.h"
  89  0000              public _wifi_data_process_buf
  89  0000              @HCCINIT0_wifi_data_process_buf .section 'data'
  89  0000  001F[       _wifi_data_process_buf	db 31 dup(0)
            00
            ]
  89  001F              #pragma debug array 47 8 31 1
  89  001F              #pragma debug array 47 8 31 1
  89  001F              #pragma debug variable 47 1 _wifi_data_process_buf "wifi_data_process_buf"
  89  001F              
  89  0000              @HCCINIT .section 'data'
  89  0000              
  89  0000              ; output external variables
  89  0000              extern _download_cmd:near
  89  0000              extern _my_memcpy_2:byte
  89  0000              extern _my_memcpy:near
  89  0000              extern _uart_transmit_output:near
  89  0000              extern _open_module_time_serve_result_2:byte
  89  0000              extern _open_module_time_serve_result:near
  89  0000              extern _my_strlen_2:byte
  89  0000              extern _my_strlen:near
  89  0000              extern _get_download_cmd_total:near
  89  0000              extern _dp_download_handle_2:byte
"File: system.h      Assembler  Version HGASM0202      Page 20

  89  0000              extern _dp_download_handle:near
  89  0000              extern _all_data_update:near
  89  0000              extern _mcu_write_rtctime_2:byte
  89  0000              extern _mcu_write_rtctime:near
  89  0000              extern _wifi_test_result_2:byte
  89  0000              extern _wifi_test_result:near
  89  0000              extern _get_wifi_status:near
  89  0000              
  89  0000              ; 
  89  0000              ; Generated by holtek-gcc v3.19, Thu Mar 25 17:36:01 2021
  89  0000              ; Rebuild 718
  89  0000              ; end of file


        0 Errors, 0