"File: TuYa_JDQ_KEY_LED.c  Assembler  Version HGASM0202      Page 1


   1  0000              ; Generated by holtek-gcc v3.19, Thu Mar 25 17:35:58 2021
   2  0000              ; 
   3  0000              ; Configuration:
   4  0000              ;       with long instruction
   5  0000              ;       Multi-ROM, Multi-RAM
   6  0000              ;       bits_per_rom_unit:16
   7  0000              ;       with mp1
   8  0000              ;       with tbhp, address(0x9)
   9  0000              ;          Use tabrd-const
  10  0000              ;       
  11  0000              ; SFR address of long-instruction arch:
  12  0000              ;    mp0 = -1,1,0
  13  0000              ;    mp1 = 4,3,2
  14  0000              ;    mp2 = 14,13,12
  15  0000              ;    tbp = 9,7,8
  16  0000              ;    acc = 5
  17  0000              ;    pcl = 6
  18  0000              ;    status = 10
  19  0000              ;    bp = 11
  20  0000              ;    intc = 75
  21  0000              ;       
  22  0000              ;       
  23  0000              ; use 'tabrdc' instead of 'tabrd'
  24  0000              ;       
  25  0000              
  26  0000              #pragma translator "holtek-gcc 4.6.4" "3.19" "build 20130711"
  27  0000              ; Rebuild 718
  28  0000              
  29  0000              ir equ [2]
  30  0000              mp equ [3]
  31  0000              sbp equ [4]
  32  0000              acc equ [5]
  33  0000              bp equ [11]
  34  0000              tblp equ [7]
  35  0000              tbhp equ [9]
  36  0000              status equ [10]
  37  0000              c equ [10].0
  38  0000              ac equ [10].1
  39  0000              z equ [10].2
  40  0000              ov equ [10].3
  41  0000              cz equ [10].6
  42  0000              sc equ [10].7
  43  0000              intc equ [75]
  44  0000              
  45  0000              extern ra:byte
  46  0000              extern rb:byte
  47  0000              extern rc:byte
  48  0000              extern rd:byte
  49  0000              extern re:byte
  50  0000              extern rf:byte
  51  0000              extern rg:byte
  52  0000              extern rh:byte
  53  0000              extern _Crom2Prom:near
  54  0000              extern _Crom2PromNext:near
  55  0000              
  56  0000              RAMBANK 0 @BITDATASEC, @BITDATASEC1
  57  0000              @HCCINIT	.section 'data'
  58  0000              @HCCINIT0	.section 'data'
  59  0000              @BITDATASEC	 .section 'data'
"File: TuYa_JDQ_KEY_LED.ASM  Assembler  Version HGASM0202      Page 2

  60  0000              @BITDATASEC1	 .section 'data'
  61  0000              
  62  0000              #pragma debug scope 1 1
  63  0000              	extern __DELAY3:near
  64  0000              	extern __DELAYX3:near
  65  0000              	extern __DELAYX6:near
  66  0000              	extern __DELAYY5:near
  67  0000              	extern __DELAYY3:near
  68  0000              	extern _builtin_holtek_delay_2:byte
  69  0000              ___pfc equ [364]
  70  0000              ___pcc equ [88]
  71  0000              ___pf equ [363]
  72  0000              ___pc equ [87]
  73  0000              ___pcpu equ [89]
  74  0000              public _fun_TuYa_JDQ_LED_IO_Init
  75  0000              #pragma debug scope 2 1

  31  0000              #line 31 "E:\Project\17.HT66F4560_EVM_V1.0\CODE\HT66F4560_TuYa_FishTank_V1.0\souce\TuYa_JDQ_KEY_LED.c"
  31  0000              _fun_TuYa_JDQ_LED_IO_Init .section 'code'
  31  0000              _fun_TuYa_JDQ_LED_IO_Init proc
  32  0000              #line 32 "E:\Project\17.HT66F4560_EVM_V1.0\CODE\HT66F4560_TuYa_FishTank_V1.0\souce\TuYa_JDQ_KEY_LED.c"
  32  0000  B56C 0001   	lclr [364].2
  33  0002              #line 33 "E:\Project\17.HT66F4560_EVM_V1.0\CODE\HT66F4560_TuYa_FishTank_V1.0\souce\TuYa_JDQ_KEY_LED.c"
  33  0002  B5EC 0001   	lclr [364].3
  34  0004              #line 34 "E:\Project\17.HT66F4560_EVM_V1.0\CODE\HT66F4560_TuYa_FishTank_V1.0\souce\TuYa_JDQ_KEY_LED.c"
  34  0004  34D8        	clr [88].1
  35  0005              #line 35 "E:\Project\17.HT66F4560_EVM_V1.0\CODE\HT66F4560_TuYa_FishTank_V1.0\souce\TuYa_JDQ_KEY_LED.c"
  35  0005  B7EC 0001   	lclr [364].7
  37  0007              #line 37 "E:\Project\17.HT66F4560_EVM_V1.0\CODE\HT66F4560_TuYa_FishTank_V1.0\souce\TuYa_JDQ_KEY_LED.c"
  37  0007  B56B 0001   	lclr [363].2
  38  0009              #line 38 "E:\Project\17.HT66F4560_EVM_V1.0\CODE\HT66F4560_TuYa_FishTank_V1.0\souce\TuYa_JDQ_KEY_LED.c"
  38  0009  B5EB 0001   	lclr [363].3
  39  000B              #line 39 "E:\Project\17.HT66F4560_EVM_V1.0\CODE\HT66F4560_TuYa_FishTank_V1.0\souce\TuYa_JDQ_KEY_LED.c"
  39  000B  34D7        	clr [87].1
  40  000C              #line 40 "E:\Project\17.HT66F4560_EVM_V1.0\CODE\HT66F4560_TuYa_FishTank_V1.0\souce\TuYa_JDQ_KEY_LED.c"
  40  000C  B7EB 0001   	lclr [363].7
  42  000E              #line 42 "E:\Project\17.HT66F4560_EVM_V1.0\CODE\HT66F4560_TuYa_FishTank_V1.0\souce\TuYa_JDQ_KEY_LED.c"
  42  000E  3158        	set [88].2
  43  000F              #line 43 "E:\Project\17.HT66F4560_EVM_V1.0\CODE\HT66F4560_TuYa_FishTank_V1.0\souce\TuYa_JDQ_KEY_LED.c"
  43  000F  3159        	set [89].2
  45  0010              #line 45 "E:\Project\17.HT66F4560_EVM_V1.0\CODE\HT66F4560_TuYa_FishTank_V1.0\souce\TuYa_JDQ_KEY_LED.c"
  45  0010  0700     R  	mov a,_gu8v_FishFood_State[0]
  45  0011  0080     R  	mov _gu8v_FishFood_State_Last[0],a
  47  0012              #line 47 "E:\Project\17.HT66F4560_EVM_V1.0\CODE\HT66F4560_TuYa_FishTank_V1.0\souce\TuYa_JDQ_KEY_LED.c"
  47  0012  1F00     R  	clr _gu8v_FishFood_FeedTimers[0]
  47  0013  0003        	ret
  47  0014              _fun_TuYa_JDQ_LED_IO_Init endp
  47  0014              #line 47 "E:\Project\17.HT66F4560_EVM_V1.0\CODE\HT66F4560_TuYa_FishTank_V1.0\souce\TuYa_JDQ_KEY_LED.c"
  47  0014              #pragma debug scope 1 1
  47  0014              public _fun_JDQ_FishFood_MotoIO
  47  0014              #pragma debug scope 3 1
  51  0014              #line 51 "E:\Project\17.HT66F4560_EVM_V1.0\CODE\HT66F4560_TuYa_FishTank_V1.0\souce\TuYa_JDQ_KEY_LED.c"
  51  0000              _fun_JDQ_FishFood_MotoIO .section 'code'
  51  0000              _fun_JDQ_FishFood_MotoIO proc
  52  0000              #line 52 "E:\Project\17.HT66F4560_EVM_V1.0\CODE\HT66F4560_TuYa_FishTank_V1.0\souce\TuYa_JDQ_KEY_LED.c"
  52  0000  3957        	snz [87].2
  52  0001  2800     R  	jmp _L3
  54  0002              #line 54 "E:\Project\17.HT66F4560_EVM_V1.0\CODE\HT66F4560_TuYa_FishTank_V1.0\souce\TuYa_JDQ_KEY_LED.c"
  54  0002  1080     R  	sz _gu8v_FishFood_State_Last[0]
  54  0003  2800     R  	jmp _L5
"File: TuYa_JDQ_KEY_LED.c  Assembler  Version HGASM0202      Page 3

  56  0004              #line 56 "E:\Project\17.HT66F4560_EVM_V1.0\CODE\HT66F4560_TuYa_FishTank_V1.0\souce\TuYa_JDQ_KEY_LED.c"
  56  0004              ;# 56 "E:\Project\17.HT66F4560_EVM_V1.0\CODE\HT66F4560_TuYa_FishTank_V1.0\souce\TuYa_JDQ_KEY_LED.c" 1
  56  0004              	IF 2>263690
  56  0004              ;# 56 "E:\Project\17.HT66F4560_EVM_V1.0\CODE\HT66F4560_TuYa_FishTank_V1.0\souce\TuYa_JDQ_KEY_LED.c" 1
  56  0004              	ERRMESSAGE 'the value 2of the argument exceeds the maxinum 263690'
  56  0004              	ENDIF
  56  0004              ;# 56 "E:\Project\17.HT66F4560_EVM_V1.0\CODE\HT66F4560_TuYa_FishTank_V1.0\souce\TuYa_JDQ_KEY_LED.c" 1
  56  0004              	IF 2<0
  56  0004              ;# 56 "E:\Project\17.HT66F4560_EVM_V1.0\CODE\HT66F4560_TuYa_FishTank_V1.0\souce\TuYa_JDQ_KEY_LED.c" 1
  56  0004              	ERRMESSAGE 'the value 2 of the argument exceeds the mininum 0'
  56  0004              	ENDIF
  56  0004              ;# 56 "E:\Project\17.HT66F4560_EVM_V1.0\CODE\HT66F4560_TuYa_FishTank_V1.0\souce\TuYa_JDQ_KEY_LED.c" 1
  56  0004              	IF 2==0
  56  0004              ;# 56 "E:\Project\17.HT66F4560_EVM_V1.0\CODE\HT66F4560_TuYa_FishTank_V1.0\souce\TuYa_JDQ_KEY_LED.c" 1
  56  0004              	JMP $
  56  0004              	ENDIF
  56  0004              ;# 56 "E:\Project\17.HT66F4560_EVM_V1.0\CODE\HT66F4560_TuYa_FishTank_V1.0\souce\TuYa_JDQ_KEY_LED.c" 1
  56  0004              	IF (2>=1) AND (2<( 4 + __PBP__ * 2))
  56  0004              ;# 56 "E:\Project\17.HT66F4560_EVM_V1.0\CODE\HT66F4560_TuYa_FishTank_V1.0\souce\TuYa_JDQ_KEY_LED.c" 1
  56  0004  0000        	NOP
  56  0005              	ENDIF
  56  0005              ;# 56 "E:\Project\17.HT66F4560_EVM_V1.0\CODE\HT66F4560_TuYa_FishTank_V1.0\souce\TuYa_JDQ_KEY_LED.c" 1
  56  0005              	IF (2>=2) AND (2<( 4 + __PBP__ * 2))
  56  0005              ;# 56 "E:\Project\17.HT66F4560_EVM_V1.0\CODE\HT66F4560_TuYa_FishTank_V1.0\souce\TuYa_JDQ_KEY_LED.c" 1
  56  0005  0000        	NOP
  56  0006              	ENDIF
  56  0006              ;# 56 "E:\Project\17.HT66F4560_EVM_V1.0\CODE\HT66F4560_TuYa_FishTank_V1.0\souce\TuYa_JDQ_KEY_LED.c" 1
  56  0006              	IF (2>=3) AND (2<( 4 + __PBP__ * 2))
  56  0006              ;# 56 "E:\Project\17.HT66F4560_EVM_V1.0\CODE\HT66F4560_TuYa_FishTank_V1.0\souce\TuYa_JDQ_KEY_LED.c" 1
  56  0006              	NOP
  56  0006              	ENDIF
  56  0006              ;# 56 "E:\Project\17.HT66F4560_EVM_V1.0\CODE\HT66F4560_TuYa_FishTank_V1.0\souce\TuYa_JDQ_KEY_LED.c" 1
  56  0006              	IF (2>=4) AND (2<( 4 + __PBP__ * 2)) AND ( __PBP__ > 0 )
  56  0006              ;# 56 "E:\Project\17.HT66F4560_EVM_V1.0\CODE\HT66F4560_TuYa_FishTank_V1.0\souce\TuYa_JDQ_KEY_LED.c" 1
  56  0006              	NOP
  56  0006              	ENDIF
  56  0006              ;# 56 "E:\Project\17.HT66F4560_EVM_V1.0\CODE\HT66F4560_TuYa_FishTank_V1.0\souce\TuYa_JDQ_KEY_LED.c" 1
  56  0006              	IF (2>=5) AND (2<( 4 + __PBP__ * 2)) AND ( __PBP__ > 0 )
  56  0006              ;# 56 "E:\Project\17.HT66F4560_EVM_V1.0\CODE\HT66F4560_TuYa_FishTank_V1.0\souce\TuYa_JDQ_KEY_LED.c" 1
  56  0006              	NOP
  56  0006              	ENDIF
  56  0006              ;# 56 "E:\Project\17.HT66F4560_EVM_V1.0\CODE\HT66F4560_TuYa_FishTank_V1.0\souce\TuYa_JDQ_KEY_LED.c" 1
  56  0006              	IF (2>=6) AND (2<( 4 + __PBP__ * 2))  AND ( __PBP__ > 1 )
  56  0006              ;# 56 "E:\Project\17.HT66F4560_EVM_V1.0\CODE\HT66F4560_TuYa_FishTank_V1.0\souce\TuYa_JDQ_KEY_LED.c" 1
  56  0006              	NOP
  56  0006              	ENDIF
  56  0006              ;# 56 "E:\Project\17.HT66F4560_EVM_V1.0\CODE\HT66F4560_TuYa_FishTank_V1.0\souce\TuYa_JDQ_KEY_LED.c" 1
  56  0006              	IF (2>=7) AND (2<( 4 + __PBP__ * 2))  AND ( __PBP__ > 1 )
  56  0006              ;# 56 "E:\Project\17.HT66F4560_EVM_V1.0\CODE\HT66F4560_TuYa_FishTank_V1.0\souce\TuYa_JDQ_KEY_LED.c" 1
  56  0006              	NOP
  56  0006              	ENDIF
  56  0006              ;# 56 "E:\Project\17.HT66F4560_EVM_V1.0\CODE\HT66F4560_TuYa_FishTank_V1.0\souce\TuYa_JDQ_KEY_LED.c" 1
  56  0006              	IF (2>=8) AND (2<( 4 + __PBP__ * 2))  AND ( __PBP__ > 2 )
  56  0006              ;# 56 "E:\Project\17.HT66F4560_EVM_V1.0\CODE\HT66F4560_TuYa_FishTank_V1.0\souce\TuYa_JDQ_KEY_LED.c" 1
  56  0006              	NOP
  56  0006              	ENDIF
  56  0006              ;# 56 "E:\Project\17.HT66F4560_EVM_V1.0\CODE\HT66F4560_TuYa_FishTank_V1.0\souce\TuYa_JDQ_KEY_LED.c" 1
  56  0006              	IF (2==9)  AND ( __PBP__ > 2 )
  56  0006              ;# 56 "E:\Project\17.HT66F4560_EVM_V1.0\CODE\HT66F4560_TuYa_FishTank_V1.0\souce\TuYa_JDQ_KEY_LED.c" 1
  56  0006              	NOP
"File: TuYa_JDQ_KEY_LED.c  Assembler  Version HGASM0202      Page 4

  56  0006              	ENDIF
  56  0006              ;# 56 "E:\Project\17.HT66F4560_EVM_V1.0\CODE\HT66F4560_TuYa_FishTank_V1.0\souce\TuYa_JDQ_KEY_LED.c" 1
  56  0006              	IF (2< ( 8 + __PBP__ * 2)) AND (2>( 3 + __PBP__ * 2))
  56  0006              ;# 56 "E:\Project\17.HT66F4560_EVM_V1.0\CODE\HT66F4560_TuYa_FishTank_V1.0\souce\TuYa_JDQ_KEY_LED.c" 1
  56  0006              	fcall __DELAY3 + ( 7 + __PBP__ * 2) -2
  56  0006              	ENDIF
  56  0006              ;# 56 "E:\Project\17.HT66F4560_EVM_V1.0\CODE\HT66F4560_TuYa_FishTank_V1.0\souce\TuYa_JDQ_KEY_LED.c" 1
  56  0006              	IF (2< ( 0404h + __PBP__ * 2)) AND (2>( 7 + __PBP__ * 2))
  56  0006              ;# 56 "E:\Project\17.HT66F4560_EVM_V1.0\CODE\HT66F4560_TuYa_FishTank_V1.0\souce\TuYa_JDQ_KEY_LED.c" 1
  56  0006              	MOV A,(2-( 4 + __PBP__ * 2))/4
  56  0006              ;# 56 "E:\Project\17.HT66F4560_EVM_V1.0\CODE\HT66F4560_TuYa_FishTank_V1.0\souce\TuYa_JDQ_KEY_LED.c" 1
  56  0006              	fcall __DELAYX3 + 3 -((2-( 4 + __PBP__ * 2)) MOD 4) 
  56  0006              	ENDIF
  56  0006              ;# 56 "E:\Project\17.HT66F4560_EVM_V1.0\CODE\HT66F4560_TuYa_FishTank_V1.0\souce\TuYa_JDQ_KEY_LED.c" 1
  56  0006              	IF (2< ( 040bh + __PBP__ * 2)) AND (2> ( 0403h + __PBP__ * 2))
  56  0006              ;# 56 "E:\Project\17.HT66F4560_EVM_V1.0\CODE\HT66F4560_TuYa_FishTank_V1.0\souce\TuYa_JDQ_KEY_LED.c" 1
  56  0006              	MOV A,0 
  56  0006              ;# 56 "E:\Project\17.HT66F4560_EVM_V1.0\CODE\HT66F4560_TuYa_FishTank_V1.0\souce\TuYa_JDQ_KEY_LED.c" 1
  56  0006              	fcall __DELAYX6 + ( 040ah + __PBP__ * 2) -2
  56  0006              	ENDIF
  56  0006              ;# 56 "E:\Project\17.HT66F4560_EVM_V1.0\CODE\HT66F4560_TuYa_FishTank_V1.0\souce\TuYa_JDQ_KEY_LED.c" 1
  56  0006              	IF (2 >= ( 040bh + __PBP__ * 2)) AND ((((2-( 9 + __PBP__ * 2))%0402h)/4+1)>256)
  56  0006              ;# 56 "E:\Project\17.HT66F4560_EVM_V1.0\CODE\HT66F4560_TuYa_FishTank_V1.0\souce\TuYa_JDQ_KEY_LED.c" 1
  56  0006              	MOV A,(2-( 9 + __PBP__ * 2))/0402h
  56  0006              ;# 56 "E:\Project\17.HT66F4560_EVM_V1.0\CODE\HT66F4560_TuYa_FishTank_V1.0\souce\TuYa_JDQ_KEY_LED.c" 1
  56  0006              	MOV _builtin_holtek_delay_2,A
  56  0006              ;# 56 "E:\Project\17.HT66F4560_EVM_V1.0\CODE\HT66F4560_TuYa_FishTank_V1.0\souce\TuYa_JDQ_KEY_LED.c" 1
  56  0006              	MOV A,0
  56  0006              ;# 56 "E:\Project\17.HT66F4560_EVM_V1.0\CODE\HT66F4560_TuYa_FishTank_V1.0\souce\TuYa_JDQ_KEY_LED.c" 1
  56  0006              	fcall __DELAYY5 +5- (((2-( 9 + __PBP__ * 2))%0402h)%6) 
  56  0006              	ENDIF
  56  0006              ;# 56 "E:\Project\17.HT66F4560_EVM_V1.0\CODE\HT66F4560_TuYa_FishTank_V1.0\souce\TuYa_JDQ_KEY_LED.c" 1
  56  0006              	IF (2 >= ( 040bh + __PBP__ * 2)) AND ((((2-( 9 + __PBP__ * 2))%0402h)/4+1)<=256)
  56  0006              ;# 56 "E:\Project\17.HT66F4560_EVM_V1.0\CODE\HT66F4560_TuYa_FishTank_V1.0\souce\TuYa_JDQ_KEY_LED.c" 1
  56  0006              	MOV A,(2-( 9 + __PBP__ * 2))/0402h
  56  0006              ;# 56 "E:\Project\17.HT66F4560_EVM_V1.0\CODE\HT66F4560_TuYa_FishTank_V1.0\souce\TuYa_JDQ_KEY_LED.c" 1
  56  0006              	MOV _builtin_holtek_delay_2,A
  56  0006              ;# 56 "E:\Project\17.HT66F4560_EVM_V1.0\CODE\HT66F4560_TuYa_FishTank_V1.0\souce\TuYa_JDQ_KEY_LED.c" 1
  56  0006              	MOV A,((2-( 9 + __PBP__ * 2))%0402h)/4+1
  56  0006              ;# 56 "E:\Project\17.HT66F4560_EVM_V1.0\CODE\HT66F4560_TuYa_FishTank_V1.0\souce\TuYa_JDQ_KEY_LED.c" 1
  56  0006              	fcall __DELAYY3 +3-(((2-( 9 + __PBP__ * 2))%0402h)%4) 
  56  0006              	ENDIF
  57  0006              #line 57 "E:\Project\17.HT66F4560_EVM_V1.0\CODE\HT66F4560_TuYa_FishTank_V1.0\souce\TuYa_JDQ_KEY_LED.c"
  57  0006  3957        	snz [87].2
  57  0007  2800     R  	jmp _L5
  58  0008              #line 58 "E:\Project\17.HT66F4560_EVM_V1.0\CODE\HT66F4560_TuYa_FishTank_V1.0\souce\TuYa_JDQ_KEY_LED.c"
  58  0008  0F01        	mov a,1
  58  0009  0080     R  	mov _gu8v_FishFood_State[0],a
  58  000A  2800     R  	jmp _L5
  58  000B              _L3:
  61  000B              #line 61 "E:\Project\17.HT66F4560_EVM_V1.0\CODE\HT66F4560_TuYa_FishTank_V1.0\souce\TuYa_JDQ_KEY_LED.c"
  61  000B  3D57        	sz [87].2
  61  000C  2800     R  	jmp _L5
  63  000D              #line 63 "E:\Project\17.HT66F4560_EVM_V1.0\CODE\HT66F4560_TuYa_FishTank_V1.0\souce\TuYa_JDQ_KEY_LED.c"
  63  000D  1F00     R  	clr _gu8v_FishFood_State[0]
  64  000E              #line 64 "E:\Project\17.HT66F4560_EVM_V1.0\CODE\HT66F4560_TuYa_FishTank_V1.0\souce\TuYa_JDQ_KEY_LED.c"
  64  000E  1700     R  	sdza _gu8v_FishFood_State_Last[0]
  64  000F  2800     R  	jmp _L5
  66  0010              #line 66 "E:\Project\17.HT66F4560_EVM_V1.0\CODE\HT66F4560_TuYa_FishTank_V1.0\souce\TuYa_JDQ_KEY_LED.c"
  66  0010              ;# 66 "E:\Project\17.HT66F4560_EVM_V1.0\CODE\HT66F4560_TuYa_FishTank_V1.0\souce\TuYa_JDQ_KEY_LED.c" 1
"File: TuYa_JDQ_KEY_LED.c  Assembler  Version HGASM0202      Page 5

  66  0010              	IF 2>263690
  66  0010              ;# 66 "E:\Project\17.HT66F4560_EVM_V1.0\CODE\HT66F4560_TuYa_FishTank_V1.0\souce\TuYa_JDQ_KEY_LED.c" 1
  66  0010              	ERRMESSAGE 'the value 2of the argument exceeds the maxinum 263690'
  66  0010              	ENDIF
  66  0010              ;# 66 "E:\Project\17.HT66F4560_EVM_V1.0\CODE\HT66F4560_TuYa_FishTank_V1.0\souce\TuYa_JDQ_KEY_LED.c" 1
  66  0010              	IF 2<0
  66  0010              ;# 66 "E:\Project\17.HT66F4560_EVM_V1.0\CODE\HT66F4560_TuYa_FishTank_V1.0\souce\TuYa_JDQ_KEY_LED.c" 1
  66  0010              	ERRMESSAGE 'the value 2 of the argument exceeds the mininum 0'
  66  0010              	ENDIF
  66  0010              ;# 66 "E:\Project\17.HT66F4560_EVM_V1.0\CODE\HT66F4560_TuYa_FishTank_V1.0\souce\TuYa_JDQ_KEY_LED.c" 1
  66  0010              	IF 2==0
  66  0010              ;# 66 "E:\Project\17.HT66F4560_EVM_V1.0\CODE\HT66F4560_TuYa_FishTank_V1.0\souce\TuYa_JDQ_KEY_LED.c" 1
  66  0010              	JMP $
  66  0010              	ENDIF
  66  0010              ;# 66 "E:\Project\17.HT66F4560_EVM_V1.0\CODE\HT66F4560_TuYa_FishTank_V1.0\souce\TuYa_JDQ_KEY_LED.c" 1
  66  0010              	IF (2>=1) AND (2<( 4 + __PBP__ * 2))
  66  0010              ;# 66 "E:\Project\17.HT66F4560_EVM_V1.0\CODE\HT66F4560_TuYa_FishTank_V1.0\souce\TuYa_JDQ_KEY_LED.c" 1
  66  0010  0000        	NOP
  66  0011              	ENDIF
  66  0011              ;# 66 "E:\Project\17.HT66F4560_EVM_V1.0\CODE\HT66F4560_TuYa_FishTank_V1.0\souce\TuYa_JDQ_KEY_LED.c" 1
  66  0011              	IF (2>=2) AND (2<( 4 + __PBP__ * 2))
  66  0011              ;# 66 "E:\Project\17.HT66F4560_EVM_V1.0\CODE\HT66F4560_TuYa_FishTank_V1.0\souce\TuYa_JDQ_KEY_LED.c" 1
  66  0011  0000        	NOP
  66  0012              	ENDIF
  66  0012              ;# 66 "E:\Project\17.HT66F4560_EVM_V1.0\CODE\HT66F4560_TuYa_FishTank_V1.0\souce\TuYa_JDQ_KEY_LED.c" 1
  66  0012              	IF (2>=3) AND (2<( 4 + __PBP__ * 2))
  66  0012              ;# 66 "E:\Project\17.HT66F4560_EVM_V1.0\CODE\HT66F4560_TuYa_FishTank_V1.0\souce\TuYa_JDQ_KEY_LED.c" 1
  66  0012              	NOP
  66  0012              	ENDIF
  66  0012              ;# 66 "E:\Project\17.HT66F4560_EVM_V1.0\CODE\HT66F4560_TuYa_FishTank_V1.0\souce\TuYa_JDQ_KEY_LED.c" 1
  66  0012              	IF (2>=4) AND (2<( 4 + __PBP__ * 2)) AND ( __PBP__ > 0 )
  66  0012              ;# 66 "E:\Project\17.HT66F4560_EVM_V1.0\CODE\HT66F4560_TuYa_FishTank_V1.0\souce\TuYa_JDQ_KEY_LED.c" 1
  66  0012              	NOP
  66  0012              	ENDIF
  66  0012              ;# 66 "E:\Project\17.HT66F4560_EVM_V1.0\CODE\HT66F4560_TuYa_FishTank_V1.0\souce\TuYa_JDQ_KEY_LED.c" 1
  66  0012              	IF (2>=5) AND (2<( 4 + __PBP__ * 2)) AND ( __PBP__ > 0 )
  66  0012              ;# 66 "E:\Project\17.HT66F4560_EVM_V1.0\CODE\HT66F4560_TuYa_FishTank_V1.0\souce\TuYa_JDQ_KEY_LED.c" 1
  66  0012              	NOP
  66  0012              	ENDIF
  66  0012              ;# 66 "E:\Project\17.HT66F4560_EVM_V1.0\CODE\HT66F4560_TuYa_FishTank_V1.0\souce\TuYa_JDQ_KEY_LED.c" 1
  66  0012              	IF (2>=6) AND (2<( 4 + __PBP__ * 2))  AND ( __PBP__ > 1 )
  66  0012              ;# 66 "E:\Project\17.HT66F4560_EVM_V1.0\CODE\HT66F4560_TuYa_FishTank_V1.0\souce\TuYa_JDQ_KEY_LED.c" 1
  66  0012              	NOP
  66  0012              	ENDIF
  66  0012              ;# 66 "E:\Project\17.HT66F4560_EVM_V1.0\CODE\HT66F4560_TuYa_FishTank_V1.0\souce\TuYa_JDQ_KEY_LED.c" 1
  66  0012              	IF (2>=7) AND (2<( 4 + __PBP__ * 2))  AND ( __PBP__ > 1 )
  66  0012              ;# 66 "E:\Project\17.HT66F4560_EVM_V1.0\CODE\HT66F4560_TuYa_FishTank_V1.0\souce\TuYa_JDQ_KEY_LED.c" 1
  66  0012              	NOP
  66  0012              	ENDIF
  66  0012              ;# 66 "E:\Project\17.HT66F4560_EVM_V1.0\CODE\HT66F4560_TuYa_FishTank_V1.0\souce\TuYa_JDQ_KEY_LED.c" 1
  66  0012              	IF (2>=8) AND (2<( 4 + __PBP__ * 2))  AND ( __PBP__ > 2 )
  66  0012              ;# 66 "E:\Project\17.HT66F4560_EVM_V1.0\CODE\HT66F4560_TuYa_FishTank_V1.0\souce\TuYa_JDQ_KEY_LED.c" 1
  66  0012              	NOP
  66  0012              	ENDIF
  66  0012              ;# 66 "E:\Project\17.HT66F4560_EVM_V1.0\CODE\HT66F4560_TuYa_FishTank_V1.0\souce\TuYa_JDQ_KEY_LED.c" 1
  66  0012              	IF (2==9)  AND ( __PBP__ > 2 )
  66  0012              ;# 66 "E:\Project\17.HT66F4560_EVM_V1.0\CODE\HT66F4560_TuYa_FishTank_V1.0\souce\TuYa_JDQ_KEY_LED.c" 1
  66  0012              	NOP
  66  0012              	ENDIF
  66  0012              ;# 66 "E:\Project\17.HT66F4560_EVM_V1.0\CODE\HT66F4560_TuYa_FishTank_V1.0\souce\TuYa_JDQ_KEY_LED.c" 1
"File: TuYa_JDQ_KEY_LED.c  Assembler  Version HGASM0202      Page 6

  66  0012              	IF (2< ( 8 + __PBP__ * 2)) AND (2>( 3 + __PBP__ * 2))
  66  0012              ;# 66 "E:\Project\17.HT66F4560_EVM_V1.0\CODE\HT66F4560_TuYa_FishTank_V1.0\souce\TuYa_JDQ_KEY_LED.c" 1
  66  0012              	fcall __DELAY3 + ( 7 + __PBP__ * 2) -2
  66  0012              	ENDIF
  66  0012              ;# 66 "E:\Project\17.HT66F4560_EVM_V1.0\CODE\HT66F4560_TuYa_FishTank_V1.0\souce\TuYa_JDQ_KEY_LED.c" 1
  66  0012              	IF (2< ( 0404h + __PBP__ * 2)) AND (2>( 7 + __PBP__ * 2))
  66  0012              ;# 66 "E:\Project\17.HT66F4560_EVM_V1.0\CODE\HT66F4560_TuYa_FishTank_V1.0\souce\TuYa_JDQ_KEY_LED.c" 1
  66  0012              	MOV A,(2-( 4 + __PBP__ * 2))/4
  66  0012              ;# 66 "E:\Project\17.HT66F4560_EVM_V1.0\CODE\HT66F4560_TuYa_FishTank_V1.0\souce\TuYa_JDQ_KEY_LED.c" 1
  66  0012              	fcall __DELAYX3 + 3 -((2-( 4 + __PBP__ * 2)) MOD 4) 
  66  0012              	ENDIF
  66  0012              ;# 66 "E:\Project\17.HT66F4560_EVM_V1.0\CODE\HT66F4560_TuYa_FishTank_V1.0\souce\TuYa_JDQ_KEY_LED.c" 1
  66  0012              	IF (2< ( 040bh + __PBP__ * 2)) AND (2> ( 0403h + __PBP__ * 2))
  66  0012              ;# 66 "E:\Project\17.HT66F4560_EVM_V1.0\CODE\HT66F4560_TuYa_FishTank_V1.0\souce\TuYa_JDQ_KEY_LED.c" 1
  66  0012              	MOV A,0 
  66  0012              ;# 66 "E:\Project\17.HT66F4560_EVM_V1.0\CODE\HT66F4560_TuYa_FishTank_V1.0\souce\TuYa_JDQ_KEY_LED.c" 1
  66  0012              	fcall __DELAYX6 + ( 040ah + __PBP__ * 2) -2
  66  0012              	ENDIF
  66  0012              ;# 66 "E:\Project\17.HT66F4560_EVM_V1.0\CODE\HT66F4560_TuYa_FishTank_V1.0\souce\TuYa_JDQ_KEY_LED.c" 1
  66  0012              	IF (2 >= ( 040bh + __PBP__ * 2)) AND ((((2-( 9 + __PBP__ * 2))%0402h)/4+1)>256)
  66  0012              ;# 66 "E:\Project\17.HT66F4560_EVM_V1.0\CODE\HT66F4560_TuYa_FishTank_V1.0\souce\TuYa_JDQ_KEY_LED.c" 1
  66  0012              	MOV A,(2-( 9 + __PBP__ * 2))/0402h
  66  0012              ;# 66 "E:\Project\17.HT66F4560_EVM_V1.0\CODE\HT66F4560_TuYa_FishTank_V1.0\souce\TuYa_JDQ_KEY_LED.c" 1
  66  0012              	MOV _builtin_holtek_delay_2,A
  66  0012              ;# 66 "E:\Project\17.HT66F4560_EVM_V1.0\CODE\HT66F4560_TuYa_FishTank_V1.0\souce\TuYa_JDQ_KEY_LED.c" 1
  66  0012              	MOV A,0
  66  0012              ;# 66 "E:\Project\17.HT66F4560_EVM_V1.0\CODE\HT66F4560_TuYa_FishTank_V1.0\souce\TuYa_JDQ_KEY_LED.c" 1
  66  0012              	fcall __DELAYY5 +5- (((2-( 9 + __PBP__ * 2))%0402h)%6) 
  66  0012              	ENDIF
  66  0012              ;# 66 "E:\Project\17.HT66F4560_EVM_V1.0\CODE\HT66F4560_TuYa_FishTank_V1.0\souce\TuYa_JDQ_KEY_LED.c" 1
  66  0012              	IF (2 >= ( 040bh + __PBP__ * 2)) AND ((((2-( 9 + __PBP__ * 2))%0402h)/4+1)<=256)
  66  0012              ;# 66 "E:\Project\17.HT66F4560_EVM_V1.0\CODE\HT66F4560_TuYa_FishTank_V1.0\souce\TuYa_JDQ_KEY_LED.c" 1
  66  0012              	MOV A,(2-( 9 + __PBP__ * 2))/0402h
  66  0012              ;# 66 "E:\Project\17.HT66F4560_EVM_V1.0\CODE\HT66F4560_TuYa_FishTank_V1.0\souce\TuYa_JDQ_KEY_LED.c" 1
  66  0012              	MOV _builtin_holtek_delay_2,A
  66  0012              ;# 66 "E:\Project\17.HT66F4560_EVM_V1.0\CODE\HT66F4560_TuYa_FishTank_V1.0\souce\TuYa_JDQ_KEY_LED.c" 1
  66  0012              	MOV A,((2-( 9 + __PBP__ * 2))%0402h)/4+1
  66  0012              ;# 66 "E:\Project\17.HT66F4560_EVM_V1.0\CODE\HT66F4560_TuYa_FishTank_V1.0\souce\TuYa_JDQ_KEY_LED.c" 1
  66  0012              	fcall __DELAYY3 +3-(((2-( 9 + __PBP__ * 2))%0402h)%4) 
  66  0012              	ENDIF
  67  0012              #line 67 "E:\Project\17.HT66F4560_EVM_V1.0\CODE\HT66F4560_TuYa_FishTank_V1.0\souce\TuYa_JDQ_KEY_LED.c"
  67  0012  3D57        	sz [87].2
  67  0013  2800     R  	jmp _L5
  68  0014              #line 68 "E:\Project\17.HT66F4560_EVM_V1.0\CODE\HT66F4560_TuYa_FishTank_V1.0\souce\TuYa_JDQ_KEY_LED.c"
  68  0014  1F00     R  	clr _gu8v_FishFood_State[0]
  68  0015              _L5:
  79  0015              #line 79 "E:\Project\17.HT66F4560_EVM_V1.0\CODE\HT66F4560_TuYa_FishTank_V1.0\souce\TuYa_JDQ_KEY_LED.c"
  79  0015  0700     R  	mov a,_gu8v_FishFood_State_Last[0]
  79  0016  0200     R  	sub a,_gu8v_FishFood_State[0]
  79  0017  3D0A        	sz z
  79  0018  2800     R  	jmp _L2
  81  0019              #line 81 "E:\Project\17.HT66F4560_EVM_V1.0\CODE\HT66F4560_TuYa_FishTank_V1.0\souce\TuYa_JDQ_KEY_LED.c"
  81  0019  0700     R  	mov a,_gu8v_FishFood_State[0]
  81  001A  0080     R  	mov _gu8v_FishFood_State_Last[0],a
  82  001B              #line 82 "E:\Project\17.HT66F4560_EVM_V1.0\CODE\HT66F4560_TuYa_FishTank_V1.0\souce\TuYa_JDQ_KEY_LED.c"
  82  001B  3000     R  	set _gbv_wifi_Send_FeedState
  83  001C              #line 83 "E:\Project\17.HT66F4560_EVM_V1.0\CODE\HT66F4560_TuYa_FishTank_V1.0\souce\TuYa_JDQ_KEY_LED.c"
  83  001C  3D57        	sz [87].2
  83  001D  2800     R  	jmp _L9
  85  001E              #line 85 "E:\Project\17.HT66F4560_EVM_V1.0\CODE\HT66F4560_TuYa_FishTank_V1.0\souce\TuYa_JDQ_KEY_LED.c"
"File: TuYa_JDQ_KEY_LED.c  Assembler  Version HGASM0202      Page 7

  85  001E  B5EB 0001   	lclr [363].3
  85  0020              _L9:
  87  0020              #line 87 "E:\Project\17.HT66F4560_EVM_V1.0\CODE\HT66F4560_TuYa_FishTank_V1.0\souce\TuYa_JDQ_KEY_LED.c"
  87  0020  3D57        	sz [87].2
  87  0021  2800     R  	jmp _L2
  89  0022              #line 89 "E:\Project\17.HT66F4560_EVM_V1.0\CODE\HT66F4560_TuYa_FishTank_V1.0\souce\TuYa_JDQ_KEY_LED.c"
  89  0022  1480     R  	inc _gu8v_FishFood_FeedTimers[0]
  90  0023              #line 90 "E:\Project\17.HT66F4560_EVM_V1.0\CODE\HT66F4560_TuYa_FishTank_V1.0\souce\TuYa_JDQ_KEY_LED.c"
  90  0023  3000     R  	set _gbv_wifi_send_FeedTimers
  91  0024              #line 91 "E:\Project\17.HT66F4560_EVM_V1.0\CODE\HT66F4560_TuYa_FishTank_V1.0\souce\TuYa_JDQ_KEY_LED.c"
  91  0024  0F0C        	mov a,12
  91  0025  0200     R  	sub a,_gu8v_FishFood_FeedTimers[0]
  91  0026  3C0A        	sz c
  91  0027  2800     R  	jmp _L2
  93  0028              #line 93 "E:\Project\17.HT66F4560_EVM_V1.0\CODE\HT66F4560_TuYa_FishTank_V1.0\souce\TuYa_JDQ_KEY_LED.c"
  93  0028  0F01        	mov a,1
  93  0029  0080     R  	mov _gu8v_FishFood_FeedTimers[0],a
  93  002A              _L2:
  93  002A  0003        	ret
  93  002B              _fun_JDQ_FishFood_MotoIO endp
  93  002B              #line 93 "E:\Project\17.HT66F4560_EVM_V1.0\CODE\HT66F4560_TuYa_FishTank_V1.0\souce\TuYa_JDQ_KEY_LED.c"
  93  002B              #pragma debug scope 1 1
  28  002B              #line 28 "E:\Project\17.HT66F4560_EVM_V1.0\CODE\HT66F4560_TuYa_FishTank_V1.0\souce\TuYa_JDQ_KEY_LED.c"
  28  002B              public _gu8v_FishFood_FeedTimers
  28  0000              @HCCINIT0_gu8v_FishFood_FeedTimers .section 'data'
  28  0000              _gu8v_FishFood_FeedTimers	db 0
  28  0001              #pragma debug variable 8 1 _gu8v_FishFood_FeedTimers "gu8v_FishFood_FeedTimers"
  28  0001              
  28  0000              @HCCINIT .section 'data'
  26  0000              #line 26 "E:\Project\17.HT66F4560_EVM_V1.0\CODE\HT66F4560_TuYa_FishTank_V1.0\souce\TuYa_JDQ_KEY_LED.c"
  26  0000              public _gu8v_FishFood_State_Last
  26  0000              @HCCINIT0_gu8v_FishFood_State_Last .section 'data'
  26  0000              _gu8v_FishFood_State_Last	db 0
  26  0001              #pragma debug variable 8 1 _gu8v_FishFood_State_Last "gu8v_FishFood_State_Last"
  26  0001              
  26  0000              @HCCINIT .section 'data'
  25  0000              #line 25 "E:\Project\17.HT66F4560_EVM_V1.0\CODE\HT66F4560_TuYa_FishTank_V1.0\souce\TuYa_JDQ_KEY_LED.c"
  25  0000              public _gu8v_FishFood_State
  25  0000              @HCCINIT0_gu8v_FishFood_State .section 'data'
  25  0000              _gu8v_FishFood_State	db 0
  25  0001              #pragma debug variable 8 1 _gu8v_FishFood_State "gu8v_FishFood_State"
  25  0001              
  25  0000              @HCCINIT .section 'data'
  23  0000              #line 23 "E:\Project\17.HT66F4560_EVM_V1.0\CODE\HT66F4560_TuYa_FishTank_V1.0\souce\TuYa_JDQ_KEY_LED.c"
  23  0000              public _gbv_wifi_send_FeedTimers
  23  0000              @BITDATASEC .section 'data'
  23  0000  00          _gbv_wifi_send_FeedTimers	dbit 0
  23  0001              #pragma debug variable 2 1 _gbv_wifi_send_FeedTimers "gbv_wifi_send_FeedTimers"
  23  0001              
  23  0000              @HCCINIT .section 'data'
  21  0000              #line 21 "E:\Project\17.HT66F4560_EVM_V1.0\CODE\HT66F4560_TuYa_FishTank_V1.0\souce\TuYa_JDQ_KEY_LED.c"
  21  0000              public _gbv_wifi_Send_FeedState
  21  0001              @BITDATASEC .section 'data'
  21  0000              _gbv_wifi_Send_FeedState	dbit 0
  21  0001              #pragma debug variable 2 1 _gbv_wifi_Send_FeedState "gbv_wifi_Send_FeedState"
  21  0001              
  21  0000              @HCCINIT .section 'data'
  19  0000              #line 19 "E:\Project\17.HT66F4560_EVM_V1.0\CODE\HT66F4560_TuYa_FishTank_V1.0\souce\TuYa_JDQ_KEY_LED.c"
  19  0000              public _gbv_wifi_Send_LED1
  19  0001              @BITDATASEC .section 'data'
"File: TuYa_JDQ_KEY_LED.c  Assembler  Version HGASM0202      Page 8

  19  0000              _gbv_wifi_Send_LED1	dbit 0
  19  0001              #pragma debug variable 2 1 _gbv_wifi_Send_LED1 "gbv_wifi_Send_LED1"
  19  0001              
  19  0000              @HCCINIT .section 'data'
  18  0000              #line 18 "E:\Project\17.HT66F4560_EVM_V1.0\CODE\HT66F4560_TuYa_FishTank_V1.0\souce\TuYa_JDQ_KEY_LED.c"
  18  0000              public _gbv_wifi_Send_JDQ_FishFood
  18  0001              @BITDATASEC .section 'data'
  18  0000              _gbv_wifi_Send_JDQ_FishFood	dbit 0
  18  0001              #pragma debug variable 2 1 _gbv_wifi_Send_JDQ_FishFood "gbv_wifi_Send_JDQ_FishFood"
  18  0001              
  18  0000              @HCCINIT .section 'data'
  17  0000              #line 17 "E:\Project\17.HT66F4560_EVM_V1.0\CODE\HT66F4560_TuYa_FishTank_V1.0\souce\TuYa_JDQ_KEY_LED.c"
  17  0000              public _gbv_wifi_Send_JDQ_Water
  17  0001              @BITDATASEC .section 'data'
  17  0000              _gbv_wifi_Send_JDQ_Water	dbit 0
  17  0001              #pragma debug variable 2 1 _gbv_wifi_Send_JDQ_Water "gbv_wifi_Send_JDQ_Water"
  17  0001              
  17  0000              @HCCINIT .section 'data'
  15  0000              #line 15 "E:\Project\17.HT66F4560_EVM_V1.0\CODE\HT66F4560_TuYa_FishTank_V1.0\souce\TuYa_JDQ_KEY_LED.c"
  15  0000              public _DS18B20_Temp
  15  0000              @HCCINIT0_DS18B20_Temp .section 'data'
  15  0000  0002[       _DS18B20_Temp	db 2 dup(0)
            00
            ]
  15  0002              #pragma debug variable 9 1 _DS18B20_Temp "DS18B20_Temp"
  15  0002              
  15  0000              @HCCINIT .section 'data'
  15  0000              #pragma debug struct_end
  15  0000              #pragma debug struct_end
  15  0000              #pragma debug union_end
  15  0000              #pragma debug union_end
  15  0000              #pragma debug variable 43 1 ___pc "__pc" 1
  15  0000              #pragma debug struct_end
  15  0000              #pragma debug struct_end
  15  0000              #pragma debug union_end
  15  0000              #pragma debug union_end
  15  0000              #pragma debug variable 45 1 ___pcc "__pcc" 1
  15  0000              #pragma debug struct_end
  15  0000              #pragma debug struct_end
  15  0000              #pragma debug union_end
  15  0000              #pragma debug union_end
  15  0000              #pragma debug variable 47 1 ___pcpu "__pcpu" 1
  15  0000              #pragma debug struct_end
  15  0000              #pragma debug struct_end
  15  0000              #pragma debug union_end
  15  0000              #pragma debug union_end
  15  0000              #pragma debug variable 49 1 ___pf "__pf" 1
  15  0000              #pragma debug struct_end
  15  0000              #pragma debug struct_end
  15  0000              #pragma debug union_end
  15  0000              #pragma debug union_end
  15  0000              #pragma debug variable 51 1 ___pfc "__pfc" 1
  15  0000              
  15  0000              ; 
  15  0000              ; Generated by holtek-gcc v3.19, Thu Mar 25 17:35:58 2021
  15  0000              ; Rebuild 718
  15  0000              ; end of file


        0 Errors, 0